(dp0
S'0003974'
p1
(lp2
(lp3
S'warning'
p4
aS'0.986'
p5
aS'317.3'
p6
aS'304.4'
p7
aS'339.9'
p8
aS'326.9'
p9
aa(lp10
g4
aS'0.855'
p11
aS'323.3'
p12
aS'318.7'
p13
aS'341.8'
p14
aS'336.5'
p15
aasS'0001652'
p16
(lp17
(lp18
S'speedlimit'
p19
aS'0.992'
p20
aS'756.9'
p21
aS'201.8'
p22
aS'775.3'
p23
aS'223.7'
p24
aasS'0001655'
p25
(lp26
(lp27
g19
aS'0.994'
p28
aS'799.5'
p29
aS'182.2'
p30
aS'827.4'
p31
aS'211.9'
p32
aasS'0006685'
p33
(lp34
(lp35
S'stop'
p36
aS'0.989'
p37
aS'785.7'
p38
aS'431.9'
p39
aS'834.3'
p40
aS'482.6'
p41
aasS'0007474'
p42
(lp43
(lp44
g4
aS'0.995'
p45
aS'914.2'
p46
aS'533.3'
p47
aS'1010.9'
p48
aS'630.6'
p49
aasS'0703738'
p50
(lp51
(lp52
g36
aS'0.719'
p53
aS'110.3'
p54
aS'307.9'
p55
aS'135.4'
p56
aS'331.5'
p57
aasS'0407090'
p58
(lp59
(lp60
g19
aS'0.931'
p61
aS'921.8'
p62
aS'433.2'
p63
aS'961.0'
p64
aS'474.8'
p65
aasS'0008315'
p66
(lp67
(lp68
g36
aS'0.990'
p69
aS'977.1'
p70
aS'414.6'
p71
aS'1029.3'
p72
aS'468.6'
p73
aasS'0407092'
p74
(lp75
(lp76
g19
aS'0.987'
p77
aS'990.3'
p78
aS'407.0'
p79
aS'1043.7'
p80
aS'470.6'
p81
aasS'0007271'
p82
(lp83
(lp84
g4
aS'0.998'
p85
aS'1116.5'
p86
aS'418.3'
p87
aS'1170.8'
p88
aS'478.1'
p89
aasS'0003885'
p90
(lp91
(lp92
g4
aS'0.998'
p93
aS'418.5'
p94
aS'248.1'
p95
aS'466.3'
p96
aS'296.2'
p97
aasS'0005597'
p98
(lp99
(lp100
g36
aS'0.999'
p101
aS'518.8'
p102
aS'127.8'
p103
aS'594.3'
p104
aS'196.9'
p105
aasS'0005594'
p106
(lp107
(lp108
g36
aS'0.998'
p109
aS'483.9'
p110
aS'157.6'
p111
aS'535.9'
p112
aS'209.2'
p113
aasS'0007279'
p114
(lp115
(lp116
g4
aS'0.995'
p117
aS'488.4'
p118
aS'400.5'
p119
aS'537.7'
p120
aS'447.6'
p121
aasS'0007372'
p122
(lp123
(lp124
g36
aS'0.997'
p125
aS'114.1'
p126
aS'409.7'
p127
aS'192.0'
p128
aS'486.8'
p129
aasS'0007375'
p130
(lp131
(lp132
g36
aS'0.997'
p133
aS'998.2'
p134
aS'394.8'
p135
aS'1063.2'
p136
aS'463.7'
p137
aa(lp138
g36
aS'0.996'
p139
aS'6.0'
p140
aS'394.7'
p141
aS'79.9'
p142
aS'466.0'
p143
aasS'0005978'
p144
(lp145
(lp146
g4
aS'0.996'
p147
aS'823.0'
p148
aS'386.8'
p149
aS'895.1'
p150
aS'460.1'
p151
aasS'0002026'
p152
(lp153
(lp154
g19
aS'0.993'
p155
aS'243.2'
p156
aS'117.6'
p157
aS'277.2'
p158
aS'156.3'
p159
aasS'0006193'
p160
(lp161
(lp162
g4
aS'0.983'
p163
aS'856.0'
p164
aS'384.8'
p165
aS'892.9'
p166
aS'423.6'
p167
aasS'0700639'
p168
(lp169
(lp170
g36
aS'0.972'
p171
aS'683.6'
p172
aS'168.5'
p173
aS'718.3'
p174
aS'203.4'
p175
aasS'0005682'
p176
(lp177
(lp178
g4
aS'0.995'
p179
aS'393.6'
p180
aS'225.0'
p181
aS'432.8'
p182
aS'260.5'
p183
aasS'0006054'
p184
(lp185
(lp186
g36
aS'0.856'
p187
aS'880.5'
p188
aS'392.4'
p189
aS'931.3'
p190
aS'443.2'
p191
aasS'0006052'
p192
(lp193
(lp194
g36
aS'0.839'
p195
aS'860.6'
p196
aS'410.0'
p197
aS'891.6'
p198
aS'443.6'
p199
aasS'0002758'
p200
(lp201
(lp202
g19
aS'0.988'
p203
aS'697.2'
p204
aS'197.1'
p205
aS'723.9'
p206
aS'227.9'
p207
aasS'0004971'
p208
(lp209
(lp210
g36
aS'0.947'
p211
aS'313.9'
p212
aS'242.1'
p213
aS'335.8'
p214
aS'263.6'
p215
aasS'0005977'
p216
(lp217
(lp218
g4
aS'0.991'
p219
aS'770.6'
p220
aS'407.7'
p221
aS'829.1'
p222
aS'466.3'
p223
aasS'0008079'
p224
(lp225
(lp226
g4
aS'0.957'
p227
aS'1053.9'
p228
aS'451.8'
p229
aS'1105.8'
p230
aS'502.4'
p231
aasS'0001483'
p232
(lp233
(lp234
g19
aS'0.987'
p235
aS'646.1'
p236
aS'185.5'
p237
aS'664.1'
p238
aS'206.0'
p239
aasS'0008270'
p240
(lp241
(lp242
g19
aS'0.987'
p243
aS'867.1'
p244
aS'427.6'
p245
aS'898.9'
p246
aS'469.3'
p247
aasS'0008271'
p248
(lp249
(lp250
g19
aS'0.992'
p251
aS'941.5'
p252
aS'399.5'
p253
aS'981.0'
p254
aS'448.7'
p255
aasS'0002050'
p256
(lp257
(lp258
g4
aS'0.983'
p259
aS'744.8'
p260
aS'148.4'
p261
aS'779.1'
p262
aS'181.5'
p263
aasS'0004672'
p264
(lp265
(lp266
g4
aS'0.984'
p267
aS'455.4'
p268
aS'299.0'
p269
aS'481.6'
p270
aS'325.8'
p271
aasS'0006514'
p272
(lp273
(lp274
g36
aS'0.994'
p275
aS'869.9'
p276
aS'416.9'
p277
aS'915.4'
p278
aS'466.1'
p279
aasS'0001501'
p280
(lp281
(lp282
g4
aS'0.993'
p283
aS'702.9'
p284
aS'210.5'
p285
aS'729.1'
p286
aS'236.6'
p287
aasS'0004497'
p288
(lp289
(lp290
g36
aS'0.996'
p291
aS'349.7'
p292
aS'268.2'
p293
aS'391.4'
p294
aS'307.6'
p295
aasS'0006227'
p296
(lp297
(lp298
g4
aS'0.994'
p299
aS'1010.7'
p300
aS'370.9'
p301
aS'1091.3'
p302
aS'452.6'
p303
aasS'0006228'
p304
(lp305
(lp306
g4
aS'0.999'
p307
aS'1180.2'
p308
aS'342.7'
p309
aS'1266.4'
p310
aS'438.5'
p311
aasS'0006959'
p312
(lp313
(lp314
g36
aS'0.761'
p315
aS'812.0'
p316
aS'458.5'
p317
aS'857.8'
p318
aS'508.3'
p319
aasS'0002851'
p320
(lp321
(lp322
g19
aS'0.998'
p323
aS'722.9'
p324
aS'134.1'
p325
aS'759.4'
p326
aS'178.6'
p327
aasS'0003725'
p328
(lp329
(lp330
g4
aS'0.993'
p331
aS'579.9'
p332
aS'270.6'
p333
aS'609.2'
p334
aS'299.2'
p335
aasS'0003053'
p336
(lp337
(lp338
g19
aS'0.996'
p339
aS'864.4'
p340
aS'110.9'
p341
aS'906.8'
p342
aS'163.3'
p343
aasS'0000531'
p344
(lp345
(lp346
g4
aS'0.981'
p347
aS'600.6'
p348
aS'188.7'
p349
aS'636.3'
p350
aS'223.3'
p351
aasS'0006423'
p352
(lp353
(lp354
g4
aS'0.995'
p355
aS'986.0'
p356
aS'337.9'
p357
aS'1066.9'
p358
aS'426.7'
p359
aasS'0006353'
p360
(lp361
(lp362
g19
aS'0.986'
p363
aS'1105.5'
p364
aS'353.9'
p365
aS'1153.4'
p366
aS'418.4'
p367
aasS'0004156'
p368
(lp369
(lp370
g36
aS'0.999'
p371
aS'389.0'
p372
aS'217.3'
p373
aS'439.4'
p374
aS'262.2'
p375
aasS'0001826'
p376
(lp377
(lp378
g4
aS'0.997'
p379
aS'796.5'
p380
aS'122.3'
p381
aS'846.6'
p382
aS'172.4'
p383
aasS'0000925'
p384
(lp385
(lp386
g4
aS'0.990'
p387
aS'679.5'
p388
aS'130.9'
p389
aS'714.4'
p390
aS'168.2'
p391
aasS'0000926'
p392
(lp393
(lp394
g4
aS'0.997'
p395
aS'697.8'
p396
aS'127.6'
p397
aS'746.6'
p398
aS'173.5'
p399
aasS'0000538'
p400
(lp401
(lp402
g4
aS'0.982'
p403
aS'600.0'
p404
aS'190.2'
p405
aS'633.2'
p406
aS'224.2'
p407
aasS'0004403'
p408
(lp409
(lp410
g4
aS'0.997'
p411
aS'466.4'
p412
aS'291.0'
p413
aS'518.6'
p414
aS'345.1'
p415
aasS'0004878'
p416
(lp417
(lp418
g36
aS'0.996'
p419
aS'231.6'
p420
aS'196.9'
p421
aS'261.5'
p422
aS'225.6'
p423
aasS'0007895'
p424
(lp425
(lp426
g36
aS'0.994'
p427
aS'879.3'
p428
aS'426.9'
p429
aS'915.7'
p430
aS'465.3'
p431
aasS'0000193'
p432
(lp433
(lp434
g36
aS'0.996'
p435
aS'798.1'
p436
aS'197.1'
p437
aS'827.0'
p438
aS'228.2'
p439
aasS'0000195'
p440
(lp441
(lp442
g36
aS'0.989'
p443
aS'819.8'
p444
aS'171.8'
p445
aS'851.3'
p446
aS'205.3'
p447
aasS'0000196'
p448
(lp449
(lp450
g36
aS'0.986'
p451
aS'840.2'
p452
aS'171.9'
p453
aS'870.1'
p454
aS'205.2'
p455
aasS'0007281'
p456
(lp457
(lp458
g4
aS'0.996'
p459
aS'393.6'
p460
aS'330.8'
p461
aS'483.5'
p462
aS'419.4'
p463
aasS'0007289'
p464
(lp465
(lp466
g4
aS'0.998'
p467
aS'976.9'
p468
aS'283.1'
p469
aS'1072.8'
p470
aS'381.0'
p471
aasS'0003530'
p472
(lp473
(lp474
g36
aS'0.998'
p475
aS'10.1'
p476
aS'22.7'
p477
aS'37.7'
p478
aS'49.0'
p479
aasS'0003795'
p480
(lp481
(lp482
g36
aS'0.653'
p483
aS'385.1'
p484
aS'314.0'
p485
aS'404.6'
p486
aS'333.5'
p487
aasS'0007116'
p488
(lp489
(lp490
g4
aS'0.993'
p491
aS'1085.7'
p492
aS'397.0'
p493
aS'1162.0'
p494
aS'480.5'
p495
aasS'0000691'
p496
(lp497
(lp498
g4
aS'0.994'
p499
aS'816.6'
p500
aS'176.9'
p501
aS'862.0'
p502
aS'222.8'
p503
aasS'0002801'
p504
(lp505
(lp506
g19
aS'0.968'
p507
aS'704.2'
p508
aS'185.0'
p509
aS'727.6'
p510
aS'210.0'
p511
aasS'0002803'
p512
(lp513
(lp514
g19
aS'0.969'
p515
aS'733.5'
p516
aS'172.2'
p517
aS'755.2'
p518
aS'195.8'
p519
aasS'0002804'
p520
(lp521
(lp522
g19
aS'0.980'
p523
aS'749.7'
p524
aS'173.3'
p525
aS'778.2'
p526
aS'203.9'
p527
aasS'0005236'
p528
(lp529
(lp530
g4
aS'0.998'
p531
aS'485.6'
p532
aS'126.0'
p533
aS'556.4'
p534
aS'194.7'
p535
aasS'0000327'
p536
(lp537
(lp538
g4
aS'0.989'
p539
aS'27.9'
p540
aS'244.4'
p541
aS'87.7'
p542
aS'306.8'
p543
aasS'0707672'
p544
(lp545
(lp546
g36
aS'0.851'
p547
aS'944.3'
p548
aS'324.6'
p549
aS'1029.1'
p550
aS'413.3'
p551
aasS'0000287'
p552
(lp553
(lp554
g4
aS'0.993'
p555
aS'199.0'
p556
aS'163.0'
p557
aS'241.9'
p558
aS'204.3'
p559
aasS'0003430'
p560
(lp561
(lp562
g4
aS'0.994'
p563
aS'588.5'
p564
aS'32.2'
p565
aS'625.2'
p566
aS'66.4'
p567
aasS'0003437'
p568
(lp569
(lp570
g4
aS'0.991'
p571
aS'613.3'
p572
aS'38.6'
p573
aS'650.3'
p574
aS'71.8'
p575
aasS'0000069'
p576
(lp577
(lp578
g4
aS'0.991'
p579
aS'676.0'
p580
aS'204.0'
p581
aS'706.4'
p582
aS'235.2'
p583
aasS'0000263'
p584
(lp585
(lp586
g4
aS'0.998'
p587
aS'845.2'
p588
aS'123.8'
p589
aS'908.9'
p590
aS'182.6'
p591
aasS'0000106'
p592
(lp593
(lp594
g4
aS'0.991'
p595
aS'297.4'
p596
aS'208.6'
p597
aS'328.6'
p598
aS'238.3'
p599
aasS'0004337'
p600
(lp601
(lp602
g19
aS'0.994'
p603
aS'511.9'
p604
aS'275.1'
p605
aS'538.4'
p606
aS'305.7'
p607
aa(lp608
g19
aS'0.633'
p609
aS'207.3'
p610
aS'213.9'
p611
aS'239.6'
p612
aS'254.4'
p613
aasS'0000101'
p614
(lp615
(lp616
g4
aS'0.953'
p617
aS'158.7'
p618
aS'147.8'
p619
aS'186.6'
p620
aS'175.2'
p621
aasS'0007237'
p622
(lp623
(lp624
g4
aS'0.995'
p625
aS'248.0'
p626
aS'371.3'
p627
aS'360.3'
p628
aS'492.3'
p629
aasS'0404150'
p630
(lp631
(lp632
g19
aS'0.998'
p633
aS'261.6'
p634
aS'257.2'
p635
aS'297.0'
p636
aS'288.9'
p637
aasS'0005550'
p638
(lp639
(lp640
g36
aS'0.961'
p641
aS'383.9'
p642
aS'225.7'
p643
aS'401.0'
p644
aS'244.1'
p645
aasS'0004596'
p646
(lp647
(lp648
g4
aS'0.998'
p649
aS'522.9'
p650
aS'228.5'
p651
aS'583.9'
p652
aS'282.6'
p653
aasS'0006636'
p654
(lp655
(lp656
g4
aS'0.994'
p657
aS'876.6'
p658
aS'408.9'
p659
aS'954.5'
p660
aS'491.4'
p661
aasS'0005650'
p662
(lp663
(lp664
g4
aS'0.794'
p665
aS'434.6'
p666
aS'234.7'
p667
aS'456.7'
p668
aS'257.6'
p669
aasS'0404093'
p670
(lp671
(lp672
g19
aS'0.995'
p673
aS'562.1'
p674
aS'220.6'
p675
aS'613.4'
p676
aS'266.5'
p677
aasS'0002239'
p678
(lp679
(lp680
g4
aS'0.978'
p681
aS'619.3'
p682
aS'191.8'
p683
aS'644.5'
p684
aS'217.1'
p685
aasS'0007605'
p686
(lp687
(lp688
g4
aS'0.988'
p689
aS'951.2'
p690
aS'380.9'
p691
aS'1033.2'
p692
aS'465.5'
p693
aasS'0002925'
p694
(lp695
(lp696
g4
aS'0.990'
p697
aS'703.5'
p698
aS'142.8'
p699
aS'742.3'
p700
aS'180.8'
p701
aasS'0002413'
p702
(lp703
(lp704
g4
aS'0.977'
p705
aS'418.0'
p706
aS'190.1'
p707
aS'447.0'
p708
aS'218.6'
p709
aasS'0007420'
p710
(lp711
(lp712
g4
aS'0.997'
p713
aS'219.7'
p714
aS'314.2'
p715
aS'322.0'
p716
aS'416.2'
p717
aa(lp718
g4
aS'0.992'
p719
aS'1146.6'
p720
aS'389.4'
p721
aS'1204.8'
p722
aS'452.9'
p723
aasS'0007421'
p724
(lp725
(lp726
g4
aS'0.995'
p727
aS'407.7'
p728
aS'428.7'
p729
aS'467.3'
p730
aS'489.1'
p731
aasS'0007542'
p732
(lp733
(lp734
g4
aS'0.996'
p735
aS'64.0'
p736
aS'357.0'
p737
aS'138.1'
p738
aS'433.2'
p739
aasS'0001762'
p740
(lp741
(lp742
g19
aS'0.996'
p743
aS'215.9'
p744
aS'152.9'
p745
aS'243.9'
p746
aS'182.6'
p747
aasS'0007428'
p748
(lp749
(lp750
g36
aS'0.941'
p751
aS'795.0'
p752
aS'435.4'
p753
aS'835.0'
p754
aS'476.0'
p755
aa(lp756
g36
aS'0.857'
p757
aS'188.1'
p758
aS'426.1'
p759
aS'231.2'
p760
aS'471.3'
p761
aasS'0705478'
p762
(lp763
(lp764
g19
aS'0.706'
p765
aS'415.1'
p766
aS'233.9'
p767
aS'431.1'
p768
aS'249.7'
p769
aasS'0002096'
p770
(lp771
(lp772
g4
aS'0.987'
p773
aS'597.1'
p774
aS'167.5'
p775
aS'630.0'
p776
aS'200.4'
p777
aasS'0002097'
p778
(lp779
(lp780
g4
aS'0.991'
p781
aS'596.2'
p782
aS'159.0'
p783
aS'630.4'
p784
aS'194.4'
p785
aasS'0007873'
p786
(lp787
(lp788
g19
aS'0.985'
p789
aS'921.2'
p790
aS'458.6'
p791
aS'951.8'
p792
aS'497.7'
p793
aasS'0004636'
p794
(lp795
(lp796
g4
aS'0.998'
p797
aS'507.1'
p798
aS'248.3'
p799
aS'560.4'
p800
aS'298.4'
p801
aasS'0006087'
p802
(lp803
(lp804
g19
aS'0.993'
p805
aS'991.8'
p806
aS'337.2'
p807
aS'1059.4'
p808
aS'423.5'
p809
aasS'0002465'
p810
(lp811
(lp812
g4
aS'0.995'
p813
aS'736.7'
p814
aS'141.8'
p815
aS'793.5'
p816
aS'199.5'
p817
aasS'0004207'
p818
(lp819
(lp820
g19
aS'0.994'
p821
aS'411.1'
p822
aS'264.1'
p823
aS'432.0'
p824
aS'290.1'
p825
aasS'0002489'
p826
(lp827
(lp828
g4
aS'0.999'
p829
aS'817.9'
p830
aS'32.4'
p831
aS'888.0'
p832
aS'104.6'
p833
aasS'0006647'
p834
(lp835
(lp836
g36
aS'0.944'
p837
aS'984.2'
p838
aS'397.3'
p839
aS'1040.8'
p840
aS'455.6'
p841
aasS'0001617'
p842
(lp843
(lp844
g19
aS'0.995'
p845
aS'495.8'
p846
aS'121.9'
p847
aS'528.9'
p848
aS'160.4'
p849
aasS'0001610'
p850
(lp851
(lp852
g19
aS'0.993'
p853
aS'532.0'
p854
aS'146.1'
p855
aS'556.0'
p856
aS'173.2'
p857
aasS'0001960'
p858
(lp859
(lp860
g36
aS'0.906'
p861
aS'693.8'
p862
aS'150.3'
p863
aS'721.1'
p864
aS'178.5'
p865
aasS'0006066'
p866
(lp867
(lp868
g19
aS'0.962'
p869
aS'1145.1'
p870
aS'292.9'
p871
aS'1213.9'
p872
aS'382.5'
p873
aasS'0006065'
p874
(lp875
(lp876
g19
aS'0.996'
p877
aS'932.8'
p878
aS'365.3'
p879
aS'989.3'
p880
aS'438.5'
p881
aasS'0006196'
p882
(lp883
(lp884
g36
aS'0.978'
p885
aS'774.4'
p886
aS'409.3'
p887
aS'808.1'
p888
aS'443.8'
p889
aasS'0000564'
p890
(lp891
(lp892
g4
aS'0.995'
p893
aS'924.4'
p894
aS'204.3'
p895
aS'959.8'
p896
aS'240.8'
p897
aasS'0006304'
p898
(lp899
(lp900
g4
aS'0.999'
p901
aS'1102.4'
p902
aS'259.7'
p903
aS'1264.8'
p904
aS'429.9'
p905
aasS'0006300'
p906
(lp907
(lp908
g4
aS'0.992'
p909
aS'846.5'
p910
aS'377.0'
p911
aS'922.1'
p912
aS'454.5'
p913
aasS'0003761'
p914
(lp915
(lp916
g36
aS'0.996'
p917
aS'170.9'
p918
aS'301.4'
p919
aS'192.3'
p920
aS'323.1'
p921
aasS'0003760'
p922
(lp923
(lp924
g36
aS'0.992'
p925
aS'165.2'
p926
aS'296.1'
p927
aS'186.1'
p928
aS'316.4'
p929
aasS'0002708'
p930
(lp931
(lp932
g4
aS'0.973'
p933
aS'663.5'
p934
aS'139.3'
p935
aS'693.8'
p936
aS'170.9'
p937
aasS'0706483'
p938
(lp939
(lp940
g36
aS'0.982'
p941
aS'832.3'
p942
aS'404.3'
p943
aS'878.4'
p944
aS'456.3'
p945
aasS'0401243'
p946
(lp947
(lp948
g19
aS'1.000'
p949
aS'899.3'
p950
aS'76.9'
p951
aS'974.0'
p952
aS'150.0'
p953
aasS'0004115'
p954
(lp955
(lp956
g4
aS'0.995'
p957
aS'179.4'
p958
aS'320.1'
p959
aS'211.5'
p960
aS'349.4'
p961
aasS'0001861'
p962
(lp963
(lp964
g4
aS'0.985'
p965
aS'673.4'
p966
aS'189.5'
p967
aS'698.8'
p968
aS'216.0'
p969
aasS'0004112'
p970
(lp971
(lp972
g19
aS'0.964'
p973
aS'634.9'
p974
aS'240.9'
p975
aS'663.2'
p976
aS'274.1'
p977
aasS'0003315'
p978
(lp979
(lp980
g36
aS'0.996'
p981
aS'795.7'
p982
aS'154.9'
p983
aS'843.3'
p984
aS'200.8'
p985
aasS'0004685'
p986
(lp987
(lp988
g19
aS'0.999'
p989
aS'50.5'
p990
aS'187.5'
p991
aS'110.9'
p992
aS'258.3'
p993
aa(lp994
g36
aS'0.890'
p995
aS'535.1'
p996
aS'257.1'
p997
aS'570.1'
p998
aS'292.0'
p999
aasS'0006015'
p1000
(lp1001
(lp1002
g36
aS'0.980'
p1003
aS'298.6'
p1004
aS'423.4'
p1005
aS'337.8'
p1006
aS'465.5'
p1007
aasS'0004832'
p1008
(lp1009
(lp1010
g19
aS'0.993'
p1011
aS'422.0'
p1012
aS'266.3'
p1013
aS'447.3'
p1014
aS'293.9'
p1015
aasS'0006461'
p1016
(lp1017
(lp1018
g36
aS'0.988'
p1019
aS'1085.5'
p1020
aS'373.6'
p1021
aS'1154.8'
p1022
aS'450.7'
p1023
aasS'0005838'
p1024
(lp1025
(lp1026
g36
aS'0.992'
p1027
aS'863.5'
p1028
aS'432.2'
p1029
aS'895.5'
p1030
aS'466.5'
p1031
aasS'0005421'
p1032
(lp1033
(lp1034
g36
aS'0.989'
p1035
aS'354.5'
p1036
aS'222.3'
p1037
aS'371.3'
p1038
aS'239.0'
p1039
aasS'0008481'
p1040
(lp1041
(lp1042
g4
aS'0.990'
p1043
aS'926.2'
p1044
aS'403.4'
p1045
aS'997.7'
p1046
aS'472.8'
p1047
aasS'0000700'
p1048
(lp1049
(lp1050
g36
aS'0.991'
p1051
aS'960.2'
p1052
aS'162.6'
p1053
aS'989.6'
p1054
aS'194.8'
p1055
aasS'0005974'
p1056
(lp1057
(lp1058
g4
aS'0.976'
p1059
aS'704.8'
p1060
aS'434.6'
p1061
aS'737.7'
p1062
aS'468.8'
p1063
aasS'0005942'
p1064
(lp1065
(lp1066
g4
aS'0.918'
p1067
aS'754.3'
p1068
aS'421.6'
p1069
aS'788.4'
p1070
aS'455.2'
p1071
aasS'0001268'
p1072
(lp1073
(lp1074
g36
aS'0.991'
p1075
aS'729.0'
p1076
aS'148.1'
p1077
aS'767.3'
p1078
aS'189.8'
p1079
aasS'0007018'
p1080
(lp1081
(lp1082
g4
aS'0.943'
p1083
aS'419.1'
p1084
aS'469.0'
p1085
aS'451.0'
p1086
aS'501.1'
p1087
aasS'0003001'
p1088
(lp1089
(lp1090
g4
aS'0.990'
p1091
aS'697.3'
p1092
aS'172.0'
p1093
aS'728.6'
p1094
aS'203.7'
p1095
aasS'0003164'
p1096
(lp1097
(lp1098
g4
aS'0.988'
p1099
aS'751.4'
p1100
aS'141.1'
p1101
aS'786.4'
p1102
aS'176.3'
p1103
aasS'0001584'
p1104
(lp1105
(lp1106
g36
aS'0.989'
p1107
aS'620.2'
p1108
aS'185.8'
p1109
aS'642.5'
p1110
aS'207.7'
p1111
aasS'0000403'
p1112
(lp1113
(lp1114
g4
aS'0.990'
p1115
aS'501.7'
p1116
aS'173.6'
p1117
aS'549.8'
p1118
aS'220.2'
p1119
aasS'0004063'
p1120
(lp1121
(lp1122
g19
aS'0.781'
p1123
aS'326.6'
p1124
aS'264.0'
p1125
aS'352.6'
p1126
aS'297.3'
p1127
aasS'0004069'
p1128
(lp1129
(lp1130
g4
aS'0.831'
p1131
aS'544.0'
p1132
aS'178.9'
p1133
aS'591.4'
p1134
aS'226.4'
p1135
aasS'0003184'
p1136
(lp1137
(lp1138
g36
aS'0.994'
p1139
aS'825.2'
p1140
aS'166.5'
p1141
aS'860.6'
p1142
aS'201.0'
p1143
aasS'0003183'
p1144
(lp1145
(lp1146
g36
aS'0.981'
p1147
aS'797.7'
p1148
aS'168.7'
p1149
aS'832.4'
p1150
aS'203.4'
p1151
aasS'0000144'
p1152
(lp1153
(lp1154
g19
aS'0.989'
p1155
aS'804.6'
p1156
aS'168.5'
p1157
aS'832.4'
p1158
aS'197.2'
p1159
aasS'0000384'
p1160
(lp1161
(lp1162
g4
aS'0.989'
p1163
aS'939.6'
p1164
aS'117.7'
p1165
aS'998.1'
p1166
aS'176.8'
p1167
aasS'0000385'
p1168
(lp1169
(lp1170
g4
aS'0.999'
p1171
aS'344.2'
p1172
aS'126.6'
p1173
aS'408.7'
p1174
aS'190.2'
p1175
aasS'0000389'
p1176
(lp1177
(lp1178
g4
aS'0.984'
p1179
aS'825.8'
p1180
aS'133.8'
p1181
aS'867.8'
p1182
aS'177.1'
p1183
aasS'0706020'
p1184
(lp1185
(lp1186
g36
aS'0.990'
p1187
aS'25.8'
p1188
aS'371.4'
p1189
aS'85.7'
p1190
aS'441.7'
p1191
aasS'0006848'
p1192
(lp1193
(lp1194
g36
aS'0.998'
p1195
aS'1024.9'
p1196
aS'394.5'
p1197
aS'1101.4'
p1198
aS'476.1'
p1199
aasS'0008557'
p1200
(lp1201
(lp1202
g4
aS'0.988'
p1203
aS'884.9'
p1204
aS'430.3'
p1205
aS'935.3'
p1206
aS'479.8'
p1207
aasS'0405476'
p1208
(lp1209
(lp1210
g19
aS'0.737'
p1211
aS'403.0'
p1212
aS'235.4'
p1213
aS'418.4'
p1214
aS'250.7'
p1215
aasS'0008416'
p1216
(lp1217
(lp1218
g19
aS'0.967'
p1219
aS'935.2'
p1220
aS'431.4'
p1221
aS'961.7'
p1222
aS'462.2'
p1223
aasS'0003461'
p1224
(lp1225
(lp1226
g19
aS'0.983'
p1227
aS'492.6'
p1228
aS'46.7'
p1229
aS'515.7'
p1230
aS'75.7'
p1231
aasS'0003469'
p1232
(lp1233
(lp1234
g19
aS'0.996'
p1235
aS'605.4'
p1236
aS'17.9'
p1237
aS'636.3'
p1238
aS'55.3'
p1239
aasS'0007468'
p1240
(lp1241
(lp1242
g19
aS'0.956'
p1243
aS'958.4'
p1244
aS'395.3'
p1245
aS'1001.2'
p1246
aS'446.9'
p1247
aasS'0007748'
p1248
(lp1249
(lp1250
g4
aS'0.989'
p1251
aS'1003.9'
p1252
aS'419.2'
p1253
aS'1043.9'
p1254
aS'467.7'
p1255
aasS'0002513'
p1256
(lp1257
(lp1258
g4
aS'0.995'
p1259
aS'663.0'
p1260
aS'157.8'
p1261
aS'705.2'
p1262
aS'199.7'
p1263
aasS'0007937'
p1264
(lp1265
(lp1266
g36
aS'0.983'
p1267
aS'868.7'
p1268
aS'446.9'
p1269
aS'912.8'
p1270
aS'490.5'
p1271
aasS'0000032'
p1272
(lp1273
(lp1274
g19
aS'0.997'
p1275
aS'832.7'
p1276
aS'89.4'
p1277
aS'876.4'
p1278
aS'143.4'
p1279
aasS'0407570'
p1280
(lp1281
(lp1282
g19
aS'0.978'
p1283
aS'731.7'
p1284
aS'467.9'
p1285
aS'767.8'
p1286
aS'505.9'
p1287
aasS'0407571'
p1288
(lp1289
(lp1290
g19
aS'0.965'
p1291
aS'764.8'
p1292
aS'472.4'
p1293
aS'801.3'
p1294
aS'509.3'
p1295
aasS'0007345'
p1296
(lp1297
(lp1298
g4
aS'0.998'
p1299
aS'933.2'
p1300
aS'246.5'
p1301
aS'1042.8'
p1302
aS'364.4'
p1303
aasS'0008306'
p1304
(lp1305
(lp1306
g4
aS'0.989'
p1307
aS'851.7'
p1308
aS'417.3'
p1309
aS'895.4'
p1310
aS'460.5'
p1311
aasS'0007838'
p1312
(lp1313
(lp1314
g4
aS'0.941'
p1315
aS'801.8'
p1316
aS'407.2'
p1317
aS'863.6'
p1318
aS'468.0'
p1319
aasS'0003629'
p1320
(lp1321
(lp1322
g4
aS'0.998'
p1323
aS'55.1'
p1324
aS'129.2'
p1325
aS'136.2'
p1326
aS'212.2'
p1327
aasS'0005348'
p1328
(lp1329
(lp1330
g4
aS'0.998'
p1331
aS'416.4'
p1332
aS'207.9'
p1333
aS'460.3'
p1334
aS'252.5'
p1335
aasS'0005073'
p1336
(lp1337
(lp1338
g4
aS'0.981'
p1339
aS'512.1'
p1340
aS'218.9'
p1341
aS'533.7'
p1342
aS'240.4'
p1343
aasS'0002564'
p1344
(lp1345
(lp1346
g4
aS'0.993'
p1347
aS'911.2'
p1348
aS'158.6'
p1349
aS'950.7'
p1350
aS'200.2'
p1351
aasS'0706118'
p1352
(lp1353
(lp1354
g36
aS'0.893'
p1355
aS'716.4'
p1356
aS'417.6'
p1357
aS'766.5'
p1358
aS'472.9'
p1359
aasS'0007513'
p1360
(lp1361
(lp1362
g4
aS'0.986'
p1363
aS'463.9'
p1364
aS'447.4'
p1365
aS'507.7'
p1366
aS'491.1'
p1367
aasS'0005866'
p1368
(lp1369
(lp1370
g36
aS'0.994'
p1371
aS'788.9'
p1372
aS'398.7'
p1373
aS'840.2'
p1374
aS'452.5'
p1375
aasS'0006189'
p1376
(lp1377
(lp1378
g19
aS'0.990'
p1379
aS'141.7'
p1380
aS'416.9'
p1381
aS'174.8'
p1382
aS'455.8'
p1383
aasS'0004963'
p1384
(lp1385
(lp1386
g36
aS'0.998'
p1387
aS'521.7'
p1388
aS'175.1'
p1389
aS'570.3'
p1390
aS'220.5'
p1391
aasS'0004098'
p1392
(lp1393
(lp1394
g19
aS'0.988'
p1395
aS'522.8'
p1396
aS'306.4'
p1397
aS'542.4'
p1398
aS'327.6'
p1399
aasS'0007944'
p1400
(lp1401
(lp1402
g36
aS'0.999'
p1403
aS'1084.6'
p1404
aS'264.8'
p1405
aS'1234.0'
p1406
aS'415.9'
p1407
aasS'0004649'
p1408
(lp1409
(lp1410
g4
aS'0.989'
p1411
aS'35.8'
p1412
aS'264.9'
p1413
aS'75.2'
p1414
aS'308.0'
p1415
aasS'0005263'
p1416
(lp1417
(lp1418
g36
aS'0.976'
p1419
aS'443.5'
p1420
aS'186.9'
p1421
aS'471.5'
p1422
aS'212.0'
p1423
aasS'0004642'
p1424
(lp1425
(lp1426
g4
aS'0.987'
p1427
aS'0.0'
p1428
aS'253.3'
p1429
aS'30.5'
p1430
aS'296.9'
p1431
aasS'0001722'
p1432
(lp1433
(lp1434
g4
aS'0.995'
p1435
aS'240.5'
p1436
aS'66.1'
p1437
aS'309.7'
p1438
aS'131.8'
p1439
aasS'0007405'
p1440
(lp1441
(lp1442
g36
aS'0.996'
p1443
aS'1084.4'
p1444
aS'389.4'
p1445
aS'1147.1'
p1446
aS'455.7'
p1447
aa(lp1448
g36
aS'0.996'
p1449
aS'171.2'
p1450
aS'382.5'
p1451
aS'245.8'
p1452
aS'452.3'
p1453
aasS'0000592'
p1454
(lp1455
(lp1456
g36
aS'0.985'
p1457
aS'54.0'
p1458
aS'143.0'
p1459
aS'92.4'
p1460
aS'180.8'
p1461
aa(lp1462
g36
aS'0.982'
p1463
aS'675.8'
p1464
aS'149.4'
p1465
aS'713.9'
p1466
aS'186.5'
p1467
aasS'0001514'
p1468
(lp1469
(lp1470
g4
aS'0.997'
p1471
aS'723.7'
p1472
aS'151.5'
p1473
aS'771.1'
p1474
aS'200.3'
p1475
aasS'0007716'
p1476
(lp1477
(lp1478
g19
aS'0.992'
p1479
aS'844.3'
p1480
aS'427.7'
p1481
aS'883.0'
p1482
aS'474.2'
p1483
aasS'0006230'
p1484
(lp1485
(lp1486
g36
aS'0.978'
p1487
aS'700.8'
p1488
aS'433.4'
p1489
aS'730.6'
p1490
aS'465.7'
p1491
aasS'0002922'
p1492
(lp1493
(lp1494
g4
aS'0.981'
p1495
aS'659.4'
p1496
aS'167.0'
p1497
aS'690.8'
p1498
aS'200.5'
p1499
aasS'0002632'
p1500
(lp1501
(lp1502
g4
aS'0.998'
p1503
aS'744.3'
p1504
aS'108.1'
p1505
aS'801.5'
p1506
aS'167.5'
p1507
aasS'0004895'
p1508
(lp1509
(lp1510
g36
aS'0.998'
p1511
aS'354.8'
p1512
aS'142.1'
p1513
aS'404.7'
p1514
aS'187.7'
p1515
aasS'0002630'
p1516
(lp1517
(lp1518
g4
aS'0.997'
p1519
aS'691.5'
p1520
aS'127.4'
p1521
aS'742.5'
p1522
aS'182.5'
p1523
aasS'0008606'
p1524
(lp1525
(lp1526
g19
aS'0.985'
p1527
aS'533.3'
p1528
aS'433.2'
p1529
aS'566.2'
p1530
aS'470.3'
p1531
aasS'0004789'
p1532
(lp1533
(lp1534
g19
aS'0.989'
p1535
aS'416.3'
p1536
aS'260.1'
p1537
aS'442.2'
p1538
aS'288.8'
p1539
aasS'0703506'
p1540
(lp1541
(lp1542
g36
aS'0.987'
p1543
aS'426.2'
p1544
aS'38.9'
p1545
aS'459.9'
p1546
aS'71.5'
p1547
aasS'0000159'
p1548
(lp1549
(lp1550
g4
aS'0.975'
p1551
aS'650.9'
p1552
aS'152.0'
p1553
aS'674.7'
p1554
aS'176.0'
p1555
aasS'0006342'
p1556
(lp1557
(lp1558
g36
aS'0.986'
p1559
aS'856.2'
p1560
aS'407.3'
p1561
aS'890.5'
p1562
aS'449.8'
p1563
aasS'0005946'
p1564
(lp1565
(lp1566
g4
aS'0.865'
p1567
aS'789.0'
p1568
aS'400.0'
p1569
aS'831.5'
p1570
aS'443.1'
p1571
aasS'0005941'
p1572
(lp1573
(lp1574
g36
aS'0.949'
p1575
aS'60.0'
p1576
aS'401.5'
p1577
aS'99.5'
p1578
aS'444.9'
p1579
aasS'0006432'
p1580
(lp1581
(lp1582
g4
aS'0.990'
p1583
aS'880.0'
p1584
aS'385.9'
p1585
aS'927.3'
p1586
aS'438.8'
p1587
aasS'0006433'
p1588
(lp1589
(lp1590
g4
aS'0.995'
p1591
aS'944.9'
p1592
aS'361.9'
p1593
aS'1011.2'
p1594
aS'430.4'
p1595
aasS'0004809'
p1596
(lp1597
(lp1598
g36
aS'0.985'
p1599
aS'434.7'
p1600
aS'269.8'
p1601
aS'462.6'
p1602
aS'296.7'
p1603
aasS'0003517'
p1604
(lp1605
(lp1606
g36
aS'0.998'
p1607
aS'530.0'
p1608
aS'18.2'
p1609
aS'582.5'
p1610
aS'67.4'
p1611
aasS'0004143'
p1612
(lp1613
(lp1614
g36
aS'0.992'
p1615
aS'155.6'
p1616
aS'278.5'
p1617
aS'181.5'
p1618
aS'302.7'
p1619
aasS'0007889'
p1620
(lp1621
(lp1622
g36
aS'0.995'
p1623
aS'1021.8'
p1624
aS'349.2'
p1625
aS'1114.4'
p1626
aS'446.3'
p1627
aasS'0001211'
p1628
(lp1629
(lp1630
g36
aS'0.997'
p1631
aS'738.8'
p1632
aS'109.1'
p1633
aS'787.1'
p1634
aS'158.6'
p1635
aasS'0400080'
p1636
(lp1637
(lp1638
g19
aS'0.999'
p1639
aS'823.8'
p1640
aS'92.2'
p1641
aS'890.7'
p1642
aS'154.0'
p1643
aasS'0002819'
p1644
(lp1645
(lp1646
g4
aS'0.988'
p1647
aS'821.1'
p1648
aS'141.0'
p1649
aS'852.0'
p1650
aS'171.2'
p1651
aasS'0705864'
p1652
(lp1653
(lp1654
g36
aS'0.976'
p1655
aS'774.1'
p1656
aS'427.5'
p1657
aS'810.3'
p1658
aS'466.4'
p1659
aasS'0000350'
p1660
(lp1661
(lp1662
g19
aS'0.738'
p1663
aS'807.1'
p1664
aS'172.9'
p1665
aS'830.4'
p1666
aS'199.4'
p1667
aasS'0000293'
p1668
(lp1669
(lp1670
g4
aS'0.847'
p1671
aS'591.9'
p1672
aS'112.2'
p1673
aS'614.2'
p1674
aS'134.9'
p1675
aasS'0000290'
p1676
(lp1677
(lp1678
g4
aS'0.992'
p1679
aS'147.0'
p1680
aS'137.4'
p1681
aS'195.5'
p1682
aS'186.9'
p1683
aa(lp1684
g4
aS'0.986'
p1685
aS'813.4'
p1686
aS'158.9'
p1687
aS'859.3'
p1688
aS'203.4'
p1689
aasS'0000297'
p1690
(lp1691
(lp1692
g4
aS'0.962'
p1693
aS'588.5'
p1694
aS'110.3'
p1695
aS'615.0'
p1696
aS'136.6'
p1697
aasS'0002256'
p1698
(lp1699
(lp1700
g4
aS'0.998'
p1701
aS'734.1'
p1702
aS'131.6'
p1703
aS'798.8'
p1704
aS'197.4'
p1705
aasS'0002257'
p1706
(lp1707
(lp1708
g4
aS'0.998'
p1709
aS'774.8'
p1710
aS'139.3'
p1711
aS'836.9'
p1712
aS'200.7'
p1713
aasS'0001998'
p1714
(lp1715
(lp1716
g4
aS'0.995'
p1717
aS'630.8'
p1718
aS'147.7'
p1719
aS'673.9'
p1720
aS'190.5'
p1721
aasS'0006720'
p1722
(lp1723
(lp1724
g19
aS'0.979'
p1725
aS'870.8'
p1726
aS'415.4'
p1727
aS'906.9'
p1728
aS'460.9'
p1729
aasS'0005643'
p1730
(lp1731
(lp1732
g19
aS'0.972'
p1733
aS'167.0'
p1734
aS'234.1'
p1735
aS'183.2'
p1736
aS'253.6'
p1737
aasS'0007228'
p1738
(lp1739
(lp1740
g4
aS'0.996'
p1741
aS'418.4'
p1742
aS'442.9'
p1743
aS'476.1'
p1744
aS'503.5'
p1745
aasS'0006148'
p1746
(lp1747
(lp1748
g19
aS'0.989'
p1749
aS'904.3'
p1750
aS'422.5'
p1751
aS'938.4'
p1752
aS'461.4'
p1753
aasS'0002322'
p1754
(lp1755
(lp1756
g4
aS'0.967'
p1757
aS'663.9'
p1758
aS'180.7'
p1759
aS'691.2'
p1760
aS'208.3'
p1761
aasS'0002324'
p1762
(lp1763
(lp1764
g4
aS'0.976'
p1765
aS'662.7'
p1766
aS'175.6'
p1767
aS'690.7'
p1768
aS'203.6'
p1769
aasS'0000183'
p1770
(lp1771
(lp1772
g36
aS'0.970'
p1773
aS'752.7'
p1774
aS'201.7'
p1775
aS'771.8'
p1776
aS'220.9'
p1777
aasS'0007630'
p1778
(lp1779
(lp1780
g4
aS'0.995'
p1781
aS'276.7'
p1782
aS'457.8'
p1783
aS'320.6'
p1784
aS'501.3'
p1785
aasS'0007415'
p1786
(lp1787
(lp1788
g4
aS'0.997'
p1789
aS'851.8'
p1790
aS'173.0'
p1791
aS'959.2'
p1792
aS'294.9'
p1793
aasS'0001679'
p1794
(lp1795
(lp1796
g19
aS'0.970'
p1797
aS'296.6'
p1798
aS'174.2'
p1799
aS'322.9'
p1800
aS'203.5'
p1801
aasS'0004616'
p1802
(lp1803
(lp1804
g4
aS'0.995'
p1805
aS'560.2'
p1806
aS'238.3'
p1807
aS'594.3'
p1808
aS'273.4'
p1809
aasS'0002073'
p1810
(lp1811
(lp1812
g19
aS'0.996'
p1813
aS'794.6'
p1814
aS'148.1'
p1815
aS'827.8'
p1816
aS'183.3'
p1817
aasS'0003958'
p1818
(lp1819
(lp1820
g4
aS'0.999'
p1821
aS'418.6'
p1822
aS'266.3'
p1823
aS'467.1'
p1824
aS'311.7'
p1825
aasS'0003812'
p1826
(lp1827
(lp1828
g36
aS'0.997'
p1829
aS'533.0'
p1830
aS'258.3'
p1831
aS'569.8'
p1832
aS'290.5'
p1833
aasS'0003817'
p1834
(lp1835
(lp1836
g4
aS'0.993'
p1837
aS'286.0'
p1838
aS'271.8'
p1839
aS'325.7'
p1840
aS'307.7'
p1841
aasS'0004194'
p1842
(lp1843
(lp1844
g19
aS'0.983'
p1845
aS'545.6'
p1846
aS'267.2'
p1847
aS'576.3'
p1848
aS'300.7'
p1849
aasS'0004605'
p1850
(lp1851
(lp1852
g4
aS'0.998'
p1853
aS'342.6'
p1854
aS'240.6'
p1855
aS'393.1'
p1856
aS'294.4'
p1857
aasS'0406513'
p1858
(lp1859
(lp1860
g19
aS'0.986'
p1861
aS'806.7'
p1862
aS'433.9'
p1863
aS'843.9'
p1864
aS'475.2'
p1865
aasS'0007904'
p1866
(lp1867
(lp1868
g19
aS'0.992'
p1869
aS'1104.8'
p1870
aS'378.5'
p1871
aS'1165.6'
p1872
aS'453.5'
p1873
aasS'0007252'
p1874
(lp1875
(lp1876
g36
aS'0.998'
p1877
aS'1.6'
p1878
aS'372.6'
p1879
aS'87.8'
p1880
aS'478.3'
p1881
aa(lp1882
g36
aS'0.997'
p1883
aS'1042.1'
p1884
aS'405.5'
p1885
aS'1115.4'
p1886
aS'487.9'
p1887
aasS'0006793'
p1888
(lp1889
(lp1890
g36
aS'0.958'
p1891
aS'801.1'
p1892
aS'471.3'
p1893
aS'835.5'
p1894
aS'507.1'
p1895
aasS'0006655'
p1896
(lp1897
(lp1898
g19
aS'0.989'
p1899
aS'848.5'
p1900
aS'433.3'
p1901
aS'886.4'
p1902
aS'478.1'
p1903
aasS'0001600'
p1904
(lp1905
(lp1906
g36
aS'0.996'
p1907
aS'695.6'
p1908
aS'123.7'
p1909
aS'745.5'
p1910
aS'173.1'
p1911
aasS'0002672'
p1912
(lp1913
(lp1914
g4
aS'0.964'
p1915
aS'589.8'
p1916
aS'160.4'
p1917
aS'614.9'
p1918
aS'184.3'
p1919
aasS'0701968'
p1920
(lp1921
(lp1922
g36
aS'0.993'
p1923
aS'814.1'
p1924
aS'91.3'
p1925
aS'865.1'
p1926
aS'145.3'
p1927
aasS'0005854'
p1928
(lp1929
(lp1930
g36
aS'0.988'
p1931
aS'884.6'
p1932
aS'393.3'
p1933
aS'935.2'
p1934
aS'450.9'
p1935
aasS'0002677'
p1936
(lp1937
(lp1938
g4
aS'0.981'
p1939
aS'615.2'
p1940
aS'140.4'
p1941
aS'643.2'
p1942
aS'168.2'
p1943
aasS'0000555'
p1944
(lp1945
(lp1946
g4
aS'0.996'
p1947
aS'739.9'
p1948
aS'142.7'
p1949
aS'791.9'
p1950
aS'199.1'
p1951
aasS'0004853'
p1952
(lp1953
(lp1954
g4
aS'0.992'
p1955
aS'511.7'
p1956
aS'179.6'
p1957
aS'553.9'
p1958
aS'222.1'
p1959
aasS'0000840'
p1960
(lp1961
(lp1962
g4
aS'0.995'
p1963
aS'605.1'
p1964
aS'183.2'
p1965
aS'635.0'
p1966
aS'212.9'
p1967
aa(lp1968
g4
aS'0.776'
p1969
aS'91.4'
p1970
aS'147.7'
p1971
aS'124.3'
p1972
aS'181.2'
p1973
aasS'0002472'
p1974
(lp1975
(lp1976
g4
aS'0.996'
p1977
aS'164.8'
p1978
aS'202.4'
p1979
aS'205.1'
p1980
aS'241.7'
p1981
aasS'0006984'
p1982
(lp1983
(lp1984
g36
aS'0.997'
p1985
aS'675.9'
p1986
aS'423.4'
p1987
aS'729.4'
p1988
aS'477.3'
p1989
aasS'0001782'
p1990
(lp1991
(lp1992
g4
aS'0.999'
p1993
aS'20.8'
p1994
aS'73.3'
p1995
aS'143.9'
p1996
aS'198.3'
p1997
aa(lp1998
g4
aS'0.992'
p1999
aS'691.6'
p2000
aS'205.3'
p2001
aS'726.6'
p2002
aS'241.7'
p2003
aasS'0007718'
p2004
(lp2005
(lp2006
g4
aS'0.991'
p2007
aS'955.3'
p2008
aS'405.9'
p2009
aS'1018.1'
p2010
aS'468.6'
p2011
aasS'0002775'
p2012
(lp2013
(lp2014
g4
aS'0.729'
p2015
aS'537.8'
p2016
aS'204.7'
p2017
aS'554.1'
p2018
aS'221.2'
p2019
aasS'0703781'
p2020
(lp2021
(lp2022
g36
aS'0.997'
p2023
aS'507.5'
p2024
aS'262.5'
p2025
aS'560.9'
p2026
aS'311.2'
p2027
aasS'0008294'
p2028
(lp2029
(lp2030
g4
aS'0.990'
p2031
aS'321.8'
p2032
aS'425.1'
p2033
aS'371.1'
p2034
aS'472.9'
p2035
aa(lp2036
g4
aS'0.961'
p2037
aS'1115.6'
p2038
aS'422.1'
p2039
aS'1164.1'
p2040
aS'475.7'
p2041
aasS'0004105'
p2042
(lp2043
(lp2044
g19
aS'0.982'
p2045
aS'442.5'
p2046
aS'287.3'
p2047
aS'466.6'
p2048
aS'313.8'
p2049
aasS'0003672'
p2050
(lp2051
(lp2052
g4
aS'0.999'
p2053
aS'523.5'
p2054
aS'146.6'
p2055
aS'584.5'
p2056
aS'211.0'
p2057
aasS'0005988'
p2058
(lp2059
(lp2060
g19
aS'0.997'
p2061
aS'1073.2'
p2062
aS'293.4'
p2063
aS'1138.0'
p2064
aS'370.3'
p2065
aasS'0006579'
p2066
(lp2067
(lp2068
g19
aS'0.997'
p2069
aS'989.9'
p2070
aS'422.3'
p2071
aS'1050.1'
p2072
aS'489.2'
p2073
aasS'0001779'
p2074
(lp2075
(lp2076
g4
aS'0.998'
p2077
aS'151.6'
p2078
aS'158.5'
p2079
aS'219.4'
p2080
aS'229.5'
p2081
aa(lp2082
g4
aS'0.990'
p2083
aS'622.9'
p2084
aS'234.9'
p2085
aS'653.2'
p2086
aS'266.9'
p2087
aasS'0001257'
p2088
(lp2089
(lp2090
g36
aS'0.996'
p2091
aS'462.3'
p2092
aS'181.7'
p2093
aS'489.5'
p2094
aS'209.0'
p2095
aasS'0001520'
p2096
(lp2097
(lp2098
g4
aS'0.996'
p2099
aS'713.5'
p2100
aS'126.3'
p2101
aS'772.5'
p2102
aS'186.3'
p2103
aasS'0004850'
p2104
(lp2105
(lp2106
g4
aS'0.993'
p2107
aS'497.9'
p2108
aS'194.6'
p2109
aS'526.3'
p2110
aS'223.3'
p2111
aasS'0001258'
p2112
(lp2113
(lp2114
g36
aS'0.996'
p2115
aS'512.2'
p2116
aS'178.9'
p2117
aS'538.0'
p2118
aS'205.5'
p2119
aasS'0002910'
p2120
(lp2121
(lp2122
g36
aS'0.998'
p2123
aS'775.1'
p2124
aS'145.2'
p2125
aS'816.7'
p2126
aS'185.9'
p2127
aasS'0706234'
p2128
(lp2129
(lp2130
g36
aS'0.972'
p2131
aS'814.8'
p2132
aS'400.4'
p2133
aS'859.9'
p2134
aS'444.7'
p2135
aasS'0706231'
p2136
(lp2137
(lp2138
g36
aS'0.973'
p2139
aS'718.5'
p2140
aS'422.6'
p2141
aS'755.2'
p2142
aS'466.7'
p2143
aasS'0703534'
p2144
(lp2145
(lp2146
g36
aS'0.954'
p2147
aS'458.4'
p2148
aS'13.9'
p2149
aS'492.0'
p2150
aS'45.9'
p2151
aasS'0703532'
p2152
(lp2153
(lp2154
g36
aS'0.955'
p2155
aS'447.7'
p2156
aS'18.8'
p2157
aS'479.3'
p2158
aS'49.4'
p2159
aasS'0007001'
p2160
(lp2161
(lp2162
g36
aS'0.997'
p2163
aS'840.4'
p2164
aS'411.8'
p2165
aS'897.1'
p2166
aS'472.9'
p2167
aasS'0004079'
p2168
(lp2169
(lp2170
g36
aS'0.935'
p2171
aS'449.6'
p2172
aS'278.5'
p2173
aS'481.3'
p2174
aS'309.2'
p2175
aasS'0002358'
p2176
(lp2177
(lp2178
g4
aS'0.998'
p2179
aS'743.7'
p2180
aS'126.1'
p2181
aS'811.7'
p2182
aS'188.8'
p2183
aasS'0000606'
p2184
(lp2185
(lp2186
g19
aS'0.992'
p2187
aS'960.1'
p2188
aS'68.6'
p2189
aS'1023.0'
p2190
aS'139.9'
p2191
aasS'0007183'
p2192
(lp2193
(lp2194
g4
aS'0.998'
p2195
aS'235.7'
p2196
aS'252.2'
p2197
aS'400.0'
p2198
aS'423.3'
p2199
aasS'0002354'
p2200
(lp2201
(lp2202
g4
aS'0.996'
p2203
aS'694.5'
p2204
aS'162.3'
p2205
aS'732.7'
p2206
aS'202.0'
p2207
aasS'0005171'
p2208
(lp2209
(lp2210
g19
aS'0.915'
p2211
aS'248.2'
p2212
aS'201.9'
p2213
aS'267.5'
p2214
aS'223.1'
p2215
aasS'0008421'
p2216
(lp2217
(lp2218
g19
aS'0.975'
p2219
aS'1058.6'
p2220
aS'400.1'
p2221
aS'1101.0'
p2222
aS'442.4'
p2223
aasS'0005175'
p2224
(lp2225
(lp2226
g19
aS'0.989'
p2227
aS'225.0'
p2228
aS'192.3'
p2229
aS'244.7'
p2230
aS'214.4'
p2231
aasS'0006859'
p2232
(lp2233
(lp2234
g36
aS'0.997'
p2235
aS'849.3'
p2236
aS'395.2'
p2237
aS'933.6'
p2238
aS'488.2'
p2239
aasS'0004404'
p2240
(lp2241
(lp2242
g4
aS'0.998'
p2243
aS'475.1'
p2244
aS'242.7'
p2245
aS'524.7'
p2246
aS'292.8'
p2247
aasS'0001750'
p2248
(lp2249
(lp2250
g4
aS'0.978'
p2251
aS'601.4'
p2252
aS'197.3'
p2253
aS'628.6'
p2254
aS'223.7'
p2255
aasS'0007674'
p2256
(lp2257
(lp2258
g19
aS'0.995'
p2259
aS'837.2'
p2260
aS'390.1'
p2261
aS'892.3'
p2262
aS'457.5'
p2263
aasS'0008544'
p2264
(lp2265
(lp2266
g36
aS'0.995'
p2267
aS'767.2'
p2268
aS'422.8'
p2269
aS'810.2'
p2270
aS'467.3'
p2271
aasS'0000734'
p2272
(lp2273
(lp2274
g4
aS'0.998'
p2275
aS'661.5'
p2276
aS'150.1'
p2277
aS'718.5'
p2278
aS'210.7'
p2279
aasS'0004016'
p2280
(lp2281
(lp2282
g4
aS'0.995'
p2283
aS'88.9'
p2284
aS'309.9'
p2285
aS'123.0'
p2286
aS'341.5'
p2287
aasS'0007070'
p2288
(lp2289
(lp2290
g36
aS'0.995'
p2291
aS'761.1'
p2292
aS'472.6'
p2293
aS'804.8'
p2294
aS'516.7'
p2295
aasS'0003854'
p2296
(lp2297
(lp2298
g4
aS'0.990'
p2299
aS'516.5'
p2300
aS'259.5'
p2301
aS'572.0'
p2302
aS'307.7'
p2303
aasS'0003852'
p2304
(lp2305
(lp2306
g4
aS'0.997'
p2307
aS'509.4'
p2308
aS'256.8'
p2309
aS'553.9'
p2310
aS'300.3'
p2311
aasS'0005380'
p2312
(lp2313
(lp2314
g19
aS'0.996'
p2315
aS'502.6'
p2316
aS'212.0'
p2317
aS'531.3'
p2318
aS'247.4'
p2319
aasS'0000041'
p2320
(lp2321
(lp2322
g36
aS'0.997'
p2323
aS'757.5'
p2324
aS'106.7'
p2325
aS'820.1'
p2326
aS'167.7'
p2327
aasS'0006615'
p2328
(lp2329
(lp2330
g4
aS'0.992'
p2331
aS'623.9'
p2332
aS'405.6'
p2333
aS'679.4'
p2334
aS'468.3'
p2335
aasS'0005679'
p2336
(lp2337
(lp2338
g4
aS'0.994'
p2339
aS'480.2'
p2340
aS'202.5'
p2341
aS'513.7'
p2342
aS'234.4'
p2343
aasS'0005433'
p2344
(lp2345
(lp2346
g36
aS'0.997'
p2347
aS'382.8'
p2348
aS'201.3'
p2349
aS'416.0'
p2350
aS'232.2'
p2351
aa(lp2352
g36
aS'0.996'
p2353
aS'38.3'
p2354
aS'182.8'
p2355
aS'72.6'
p2356
aS'214.8'
p2357
aasS'0406963'
p2358
(lp2359
(lp2360
g19
aS'0.997'
p2361
aS'875.5'
p2362
aS'432.6'
p2363
aS'939.3'
p2364
aS'502.2'
p2365
aasS'0003209'
p2366
(lp2367
(lp2368
g4
aS'0.993'
p2369
aS'572.4'
p2370
aS'86.8'
p2371
aS'598.2'
p2372
aS'110.6'
p2373
aasS'0007214'
p2374
(lp2375
(lp2376
g4
aS'0.998'
p2377
aS'1067.2'
p2378
aS'324.4'
p2379
aS'1184.2'
p2380
aS'463.5'
p2381
aasS'0005797'
p2382
(lp2383
(lp2384
g19
aS'0.991'
p2385
aS'141.5'
p2386
aS'209.9'
p2387
aS'160.7'
p2388
aS'231.3'
p2389
aa(lp2390
g4
aS'0.996'
p2391
aS'572.2'
p2392
aS'288.6'
p2393
aS'639.0'
p2394
aS'374.0'
p2395
aasS'0002004'
p2396
(lp2397
(lp2398
g4
aS'0.999'
p2399
aS'732.8'
p2400
aS'76.7'
p2401
aS'816.2'
p2402
aS'162.2'
p2403
aa(lp2404
g4
aS'0.999'
p2405
aS'55.5'
p2406
aS'53.8'
p2407
aS'141.6'
p2408
aS'144.5'
p2409
aasS'0006030'
p2410
(lp2411
(lp2412
g4
aS'0.992'
p2413
aS'679.6'
p2414
aS'405.9'
p2415
aS'719.4'
p2416
aS'446.7'
p2417
aasS'0704271'
p2418
(lp2419
(lp2420
g36
aS'0.985'
p2421
aS'417.0'
p2422
aS'252.1'
p2423
aS'444.6'
p2424
aS'278.3'
p2425
aasS'0008159'
p2426
(lp2427
(lp2428
g36
aS'0.996'
p2429
aS'980.5'
p2430
aS'346.4'
p2431
aS'1050.6'
p2432
aS'422.1'
p2433
aasS'0003634'
p2434
(lp2435
(lp2436
g4
aS'0.998'
p2437
aS'488.5'
p2438
aS'203.3'
p2439
aS'537.7'
p2440
aS'251.7'
p2441
aasS'0003637'
p2442
(lp2443
(lp2444
g4
aS'0.999'
p2445
aS'609.4'
p2446
aS'131.7'
p2447
aS'685.5'
p2448
aS'217.8'
p2449
aasS'0008151'
p2450
(lp2451
(lp2452
g19
aS'0.972'
p2453
aS'806.8'
p2454
aS'462.5'
p2455
aS'832.0'
p2456
aS'496.9'
p2457
aasS'0401560'
p2458
(lp2459
(lp2460
g19
aS'0.999'
p2461
aS'346.2'
p2462
aS'127.2'
p2463
aS'404.7'
p2464
aS'184.6'
p2465
aasS'0004656'
p2466
(lp2467
(lp2468
g4
aS'0.997'
p2469
aS'622.4'
p2470
aS'254.3'
p2471
aS'666.5'
p2472
aS'301.2'
p2473
aasS'0004229'
p2474
(lp2475
(lp2476
g4
aS'0.951'
p2477
aS'379.0'
p2478
aS'299.5'
p2479
aS'403.1'
p2480
aS'324.3'
p2481
aasS'0004225'
p2482
(lp2483
(lp2484
g4
aS'0.996'
p2485
aS'136.8'
p2486
aS'272.8'
p2487
aS'188.2'
p2488
aS'320.1'
p2489
aasS'0007647'
p2490
(lp2491
(lp2492
g4
aS'0.996'
p2493
aS'827.0'
p2494
aS'398.8'
p2495
aS'879.1'
p2496
aS'452.0'
p2497
aasS'0005252'
p2498
(lp2499
(lp2500
g36
aS'0.999'
p2501
aS'535.8'
p2502
aS'89.3'
p2503
aS'593.7'
p2504
aS'142.9'
p2505
aasS'0005255'
p2506
(lp2507
(lp2508
g36
aS'0.999'
p2509
aS'618.0'
p2510
aS'46.1'
p2511
aS'692.0'
p2512
aS'121.9'
p2513
aasS'0006109'
p2514
(lp2515
(lp2516
g4
aS'0.883'
p2517
aS'846.7'
p2518
aS'399.3'
p2519
aS'909.4'
p2520
aS'466.5'
p2521
aasS'0007321'
p2522
(lp2523
(lp2524
g19
aS'0.988'
p2525
aS'427.3'
p2526
aS'433.8'
p2527
aS'460.3'
p2528
aS'475.4'
p2529
aasS'0005258'
p2530
(lp2531
(lp2532
g4
aS'0.999'
p2533
aS'580.4'
p2534
aS'30.4'
p2535
aS'672.8'
p2536
aS'125.5'
p2537
aasS'0005705'
p2538
(lp2539
(lp2540
g19
aS'0.995'
p2541
aS'416.0'
p2542
aS'211.2'
p2543
aS'436.8'
p2544
aS'236.7'
p2545
aasS'0001737'
p2546
(lp2547
(lp2548
g4
aS'0.998'
p2549
aS'735.1'
p2550
aS'129.5'
p2551
aS'803.4'
p2552
aS'198.5'
p2553
aasS'0005316'
p2554
(lp2555
(lp2556
g36
aS'0.859'
p2557
aS'383.9'
p2558
aS'259.0'
p2559
aS'401.1'
p2560
aS'277.2'
p2561
aasS'0706272'
p2562
(lp2563
(lp2564
g36
aS'0.986'
p2565
aS'1096.8'
p2566
aS'363.2'
p2567
aS'1166.8'
p2568
aS'448.7'
p2569
aasS'0005924'
p2570
(lp2571
(lp2572
g36
aS'0.981'
p2573
aS'915.6'
p2574
aS'422.7'
p2575
aS'978.7'
p2576
aS'483.8'
p2577
aasS'0005923'
p2578
(lp2579
(lp2580
g36
aS'0.986'
p2581
aS'877.1'
p2582
aS'435.4'
p2583
aS'910.3'
p2584
aS'472.5'
p2585
aasS'0005922'
p2586
(lp2587
(lp2588
g36
aS'0.904'
p2589
aS'841.0'
p2590
aS'435.7'
p2591
aS'876.5'
p2592
aS'475.3'
p2593
aasS'0000460'
p2594
(lp2595
(lp2596
g4
aS'0.998'
p2597
aS'782.4'
p2598
aS'137.7'
p2599
aS'840.6'
p2600
aS'191.0'
p2601
aasS'0008593'
p2602
(lp2603
(lp2604
g36
aS'0.993'
p2605
aS'991.7'
p2606
aS'402.7'
p2607
aS'1031.4'
p2608
aS'444.1'
p2609
aasS'0001296'
p2610
(lp2611
(lp2612
g36
aS'0.995'
p2613
aS'799.4'
p2614
aS'80.0'
p2615
aS'857.3'
p2616
aS'136.3'
p2617
aasS'0007458'
p2618
(lp2619
(lp2620
g4
aS'0.954'
p2621
aS'860.2'
p2622
aS'419.2'
p2623
aS'912.1'
p2624
aS'473.1'
p2625
aasS'0008261'
p2626
(lp2627
(lp2628
g4
aS'0.974'
p2629
aS'1174.7'
p2630
aS'406.3'
p2631
aS'1236.0'
p2632
aS'471.4'
p2633
aasS'0006973'
p2634
(lp2635
(lp2636
g36
aS'0.996'
p2637
aS'992.3'
p2638
aS'384.8'
p2639
aS'1066.0'
p2640
aS'466.9'
p2641
aasS'0002640'
p2642
(lp2643
(lp2644
g19
aS'0.977'
p2645
aS'649.0'
p2646
aS'146.9'
p2647
aS'690.8'
p2648
aS'190.7'
p2649
aasS'0002647'
p2650
(lp2651
(lp2652
g4
aS'0.975'
p2653
aS'583.5'
p2654
aS'175.2'
p2655
aS'612.8'
p2656
aS'203.0'
p2657
aasS'0002729'
p2658
(lp2659
(lp2660
g4
aS'0.909'
p2661
aS'559.0'
p2662
aS'42.5'
p2663
aS'593.7'
p2664
aS'77.4'
p2665
aasS'0004031'
p2666
(lp2667
(lp2668
g4
aS'0.997'
p2669
aS'575.3'
p2670
aS'236.8'
p2671
aS'631.2'
p2672
aS'286.7'
p2673
aasS'0000864'
p2674
(lp2675
(lp2676
g19
aS'0.980'
p2677
aS'648.3'
p2678
aS'194.3'
p2679
aS'664.3'
p2680
aS'210.0'
p2681
aasS'0004812'
p2682
(lp2683
(lp2684
g36
aS'0.991'
p2685
aS'452.4'
p2686
aS'264.0'
p2687
aS'483.1'
p2688
aS'292.0'
p2689
aasS'0002437'
p2690
(lp2691
(lp2692
g4
aS'0.994'
p2693
aS'642.3'
p2694
aS'163.9'
p2695
aS'673.4'
p2696
aS'194.2'
p2697
aasS'0003090'
p2698
(lp2699
(lp2700
g36
aS'0.810'
p2701
aS'428.4'
p2702
aS'243.5'
p2703
aS'445.3'
p2704
aS'259.6'
p2705
aasS'0701590'
p2706
(lp2707
(lp2708
g36
aS'0.901'
p2709
aS'662.0'
p2710
aS'159.8'
p2711
aS'688.2'
p2712
aS'187.0'
p2713
aasS'0000763'
p2714
(lp2715
(lp2716
g19
aS'0.984'
p2717
aS'911.8'
p2718
aS'163.3'
p2719
aS'936.8'
p2720
aS'190.1'
p2721
aasS'0001163'
p2722
(lp2723
(lp2724
g19
aS'0.992'
p2725
aS'422.7'
p2726
aS'187.6'
p2727
aS'448.9'
p2728
aS'219.6'
p2729
aasS'0001162'
p2730
(lp2731
(lp2732
g19
aS'0.990'
p2733
aS'457.1'
p2734
aS'181.5'
p2735
aS'480.1'
p2736
aS'208.0'
p2737
aasS'0008504'
p2738
(lp2739
(lp2740
g4
aS'0.970'
p2741
aS'960.8'
p2742
aS'439.3'
p2743
aS'999.7'
p2744
aS'477.3'
p2745
aasS'0008508'
p2746
(lp2747
(lp2748
g19
aS'0.984'
p2749
aS'865.8'
p2750
aS'429.9'
p2751
aS'901.2'
p2752
aS'473.8'
p2753
aasS'0005036'
p2754
(lp2755
(lp2756
g36
aS'0.998'
p2757
aS'546.3'
p2758
aS'154.3'
p2759
aS'593.5'
p2760
aS'199.4'
p2761
aasS'0006816'
p2762
(lp2763
(lp2764
g19
aS'0.971'
p2765
aS'836.1'
p2766
aS'425.4'
p2767
aS'875.7'
p2768
aS'471.7'
p2769
aasS'0007031'
p2770
(lp2771
(lp2772
g36
aS'0.963'
p2773
aS'749.5'
p2774
aS'413.1'
p2775
aS'784.2'
p2776
aS'452.8'
p2777
aasS'0003410'
p2778
(lp2779
(lp2780
g4
aS'0.996'
p2781
aS'231.8'
p2782
aS'30.0'
p2783
aS'269.1'
p2784
aS'66.0'
p2785
aasS'0004663'
p2786
(lp2787
(lp2788
g4
aS'0.996'
p2789
aS'492.5'
p2790
aS'283.7'
p2791
aS'528.3'
p2792
aS'316.6'
p2793
aasS'0002943'
p2794
(lp2795
(lp2796
g4
aS'0.995'
p2797
aS'627.3'
p2798
aS'155.7'
p2799
aS'662.9'
p2800
aS'191.2'
p2801
aasS'0005029'
p2802
(lp2803
(lp2804
g36
aS'0.990'
p2805
aS'521.3'
p2806
aS'192.2'
p2807
aS'544.6'
p2808
aS'215.0'
p2809
aasS'0000344'
p2810
(lp2811
(lp2812
g36
aS'0.793'
p2813
aS'852.7'
p2814
aS'231.8'
p2815
aS'874.7'
p2816
aS'255.6'
p2817
aa(lp2818
g4
aS'0.998'
p2819
aS'188.9'
p2820
aS'57.9'
p2821
aS'295.5'
p2822
aS'171.8'
p2823
aasS'0000349'
p2824
(lp2825
(lp2826
g19
aS'0.969'
p2827
aS'790.3'
p2828
aS'170.2'
p2829
aS'811.3'
p2830
aS'195.2'
p2831
aasS'0003027'
p2832
(lp2833
(lp2834
g19
aS'0.994'
p2835
aS'782.0'
p2836
aS'54.6'
p2837
aS'829.4'
p2838
aS'115.4'
p2839
aasS'0002631'
p2840
(lp2841
(lp2842
g4
aS'0.992'
p2843
aS'712.2'
p2844
aS'116.1'
p2845
aS'771.8'
p2846
aS'176.6'
p2847
aasS'0000083'
p2848
(lp2849
(lp2850
g4
aS'0.992'
p2851
aS'44.0'
p2852
aS'166.0'
p2853
aS'69.6'
p2854
aS'190.2'
p2855
aasS'0706000'
p2856
(lp2857
(lp2858
g36
aS'0.607'
p2859
aS'355.9'
p2860
aS'444.9'
p2861
aS'382.9'
p2862
aS'472.6'
p2863
aasS'0406215'
p2864
(lp2865
(lp2866
g19
aS'0.942'
p2867
aS'709.1'
p2868
aS'422.4'
p2869
aS'750.0'
p2870
aS'463.9'
p2871
aasS'0007627'
p2872
(lp2873
(lp2874
g19
aS'0.994'
p2875
aS'175.8'
p2876
aS'443.1'
p2877
aS'211.7'
p2878
aS'487.5'
p2879
aasS'0005536'
p2880
(lp2881
(lp2882
g4
aS'0.988'
p2883
aS'407.5'
p2884
aS'220.1'
p2885
aS'427.2'
p2886
aS'238.1'
p2887
aasS'0006713'
p2888
(lp2889
(lp2890
g36
aS'0.992'
p2891
aS'1061.2'
p2892
aS'225.3'
p2893
aS'1235.6'
p2894
aS'417.4'
p2895
aasS'0007456'
p2896
(lp2897
(lp2898
g19
aS'0.992'
p2899
aS'867.3'
p2900
aS'448.7'
p2901
aS'901.5'
p2902
aS'488.6'
p2903
aasS'0007146'
p2904
(lp2905
(lp2906
g36
aS'0.992'
p2907
aS'899.4'
p2908
aS'420.1'
p2909
aS'946.3'
p2910
aS'466.9'
p2911
aa(lp2912
g36
aS'0.990'
p2913
aS'333.7'
p2914
aS'415.3'
p2915
aS'381.7'
p2916
aS'463.6'
p2917
aasS'0005254'
p2918
(lp2919
(lp2920
g36
aS'0.996'
p2921
aS'581.6'
p2922
aS'62.9'
p2923
aS'659.8'
p2924
aS'133.5'
p2925
aasS'0002979'
p2926
(lp2927
(lp2928
g4
aS'0.997'
p2929
aS'733.5'
p2930
aS'124.5'
p2931
aS'783.1'
p2932
aS'173.4'
p2933
aasS'0005696'
p2934
(lp2935
(lp2936
g36
aS'0.892'
p2937
aS'444.3'
p2938
aS'210.8'
p2939
aS'468.4'
p2940
aS'235.5'
p2941
aasS'0001665'
p2942
(lp2943
(lp2944
g19
aS'0.992'
p2945
aS'732.0'
p2946
aS'175.0'
p2947
aS'755.8'
p2948
aS'201.9'
p2949
aasS'0002165'
p2950
(lp2951
(lp2952
g4
aS'0.995'
p2953
aS'565.9'
p2954
aS'157.3'
p2955
aS'593.7'
p2956
aS'185.0'
p2957
aasS'0001660'
p2958
(lp2959
(lp2960
g19
aS'0.995'
p2961
aS'971.4'
p2962
aS'157.3'
p2963
aS'1016.8'
p2964
aS'205.6'
p2965
aasS'0705458'
p2966
(lp2967
(lp2968
g36
aS'0.987'
p2969
aS'398.5'
p2970
aS'232.2'
p2971
aS'417.6'
p2972
aS'252.2'
p2973
aa(lp2974
g36
aS'0.853'
p2975
aS'93.2'
p2976
aS'213.9'
p2977
aS'110.6'
p2978
aS'231.7'
p2979
aasS'0000014'
p2980
(lp2981
(lp2982
g19
aS'0.984'
p2983
aS'515.0'
p2984
aS'195.4'
p2985
aS'535.3'
p2986
aS'220.9'
p2987
aasS'0004612'
p2988
(lp2989
(lp2990
g4
aS'0.992'
p2991
aS'589.8'
p2992
aS'260.3'
p2993
aS'621.7'
p2994
aS'289.9'
p2995
aasS'0005748'
p2996
(lp2997
(lp2998
g4
aS'0.956'
p2999
aS'471.7'
p3000
aS'225.8'
p3001
aS'491.3'
p3002
aS'247.6'
p3003
aasS'0005219'
p3004
(lp3005
(lp3006
g19
aS'0.987'
p3007
aS'452.1'
p3008
aS'163.9'
p3009
aS'481.5'
p3010
aS'197.9'
p3011
aasS'0004615'
p3012
(lp3013
(lp3014
g4
aS'0.997'
p3015
aS'570.6'
p3016
aS'244.3'
p3017
aS'602.6'
p3018
aS'277.5'
p3019
aasS'0400616'
p3020
(lp3021
(lp3022
g19
aS'0.986'
p3023
aS'800.3'
p3024
aS'185.1'
p3025
aS'825.7'
p3026
aS'215.7'
p3027
aasS'0006783'
p3028
(lp3029
(lp3030
g4
aS'0.996'
p3031
aS'936.5'
p3032
aS'374.1'
p3033
aS'1016.8'
p3034
aS'459.1'
p3035
aasS'0006780'
p3036
(lp3037
(lp3038
g4
aS'0.988'
p3039
aS'776.9'
p3040
aS'426.4'
p3041
aS'825.3'
p3042
aS'479.7'
p3043
aasS'0005581'
p3044
(lp3045
(lp3046
g36
aS'0.986'
p3047
aS'399.2'
p3048
aS'222.0'
p3049
aS'425.9'
p3050
aS'249.0'
p3051
aasS'0002548'
p3052
(lp3053
(lp3054
g19
aS'0.969'
p3055
aS'642.5'
p3056
aS'175.6'
p3057
aS'664.0'
p3058
aS'200.0'
p3059
aasS'0006788'
p3060
(lp3061
(lp3062
g4
aS'0.987'
p3063
aS'771.4'
p3064
aS'404.8'
p3065
aS'834.6'
p3066
aS'468.7'
p3067
aasS'0006665'
p3068
(lp3069
(lp3070
g36
aS'0.997'
p3071
aS'950.0'
p3072
aS'335.6'
p3073
aS'1028.6'
p3074
aS'419.3'
p3075
aasS'0004868'
p3076
(lp3077
(lp3078
g4
aS'0.999'
p3079
aS'650.1'
p3080
aS'164.4'
p3081
aS'696.0'
p3082
aS'213.6'
p3083
aasS'0001019'
p3084
(lp3085
(lp3086
g36
aS'0.990'
p3087
aS'716.0'
p3088
aS'110.5'
p3089
aS'762.8'
p3090
aS'163.1'
p3091
aasS'0006360'
p3092
(lp3093
(lp3094
g4
aS'0.908'
p3095
aS'692.2'
p3096
aS'449.9'
p3097
aS'724.2'
p3098
aS'478.1'
p3099
aasS'0001402'
p3100
(lp3101
(lp3102
g4
aS'0.998'
p3103
aS'683.6'
p3104
aS'112.3'
p3105
aS'751.1'
p3106
aS'178.3'
p3107
aasS'0002768'
p3108
(lp3109
(lp3110
g19
aS'0.996'
p3111
aS'783.5'
p3112
aS'156.3'
p3113
aS'824.7'
p3114
aS'205.1'
p3115
aasS'0002769'
p3116
(lp3117
(lp3118
g19
aS'0.997'
p3119
aS'798.3'
p3120
aS'141.7'
p3121
aS'840.4'
p3122
aS'193.3'
p3123
aasS'0008064'
p3124
(lp3125
(lp3126
g4
aS'0.980'
p3127
aS'937.8'
p3128
aS'442.2'
p3129
aS'991.5'
p3130
aS'495.6'
p3131
aasS'0004602'
p3132
(lp3133
(lp3134
g4
aS'0.998'
p3135
aS'418.0'
p3136
aS'236.2'
p3137
aS'468.3'
p3138
aS'288.6'
p3139
aasS'0001797'
p3140
(lp3141
(lp3142
g4
aS'0.994'
p3143
aS'409.5'
p3144
aS'152.4'
p3145
aS'452.0'
p3146
aS'194.4'
p3147
aasS'0005996'
p3148
(lp3149
(lp3150
g4
aS'0.993'
p3151
aS'818.1'
p3152
aS'386.8'
p3153
aS'874.9'
p3154
aS'445.0'
p3155
aasS'0006441'
p3156
(lp3157
(lp3158
g36
aS'0.993'
p3159
aS'781.5'
p3160
aS'422.0'
p3161
aS'824.7'
p3162
aS'466.6'
p3163
aasS'0001880'
p3164
(lp3165
(lp3166
g4
aS'0.998'
p3167
aS'859.4'
p3168
aS'10.3'
p3169
aS'937.0'
p3170
aS'88.2'
p3171
aasS'0004508'
p3172
(lp3173
(lp3174
g36
aS'0.999'
p3175
aS'463.1'
p3176
aS'268.1'
p3177
aS'511.1'
p3178
aS'315.8'
p3179
aasS'0004919'
p3180
(lp3181
(lp3182
g4
aS'0.998'
p3183
aS'571.5'
p3184
aS'143.3'
p3185
aS'638.5'
p3186
aS'211.6'
p3187
aasS'0000030'
p3188
(lp3189
(lp3190
g19
aS'0.994'
p3191
aS'760.9'
p3192
aS'132.0'
p3193
aS'800.6'
p3194
aS'177.0'
p3195
aasS'0005369'
p3196
(lp3197
(lp3198
g19
aS'0.997'
p3199
aS'468.4'
p3200
aS'228.3'
p3201
aS'484.8'
p3202
aS'246.4'
p3203
aasS'0001063'
p3204
(lp3205
(lp3206
g4
aS'0.990'
p3207
aS'635.4'
p3208
aS'135.8'
p3209
aS'692.8'
p3210
aS'194.9'
p3211
aasS'0004916'
p3212
(lp3213
(lp3214
g4
aS'0.996'
p3215
aS'496.0'
p3216
aS'175.5'
p3217
aS'542.7'
p3218
aS'223.0'
p3219
aasS'0002049'
p3220
(lp3221
(lp3222
g19
aS'0.993'
p3223
aS'815.9'
p3224
aS'32.4'
p3225
aS'865.9'
p3226
aS'90.8'
p3227
aasS'0006216'
p3228
(lp3229
(lp3230
g19
aS'0.906'
p3231
aS'753.7'
p3232
aS'407.4'
p3233
aS'798.3'
p3234
aS'454.6'
p3235
aasS'0006210'
p3236
(lp3237
(lp3238
g36
aS'0.997'
p3239
aS'902.2'
p3240
aS'374.2'
p3241
aS'941.9'
p3242
aS'416.9'
p3243
aasS'0701642'
p3244
(lp3245
(lp3246
g36
aS'0.978'
p3247
aS'884.8'
p3248
aS'123.4'
p3249
aS'930.3'
p3250
aS'169.5'
p3251
aasS'0701641'
p3252
(lp3253
(lp3254
g36
aS'0.996'
p3255
aS'842.1'
p3256
aS'135.6'
p3257
aS'877.4'
p3258
aS'172.5'
p3259
aasS'0001248'
p3260
(lp3261
(lp3262
g36
aS'0.827'
p3263
aS'533.8'
p3264
aS'202.6'
p3265
aS'552.2'
p3266
aS'221.8'
p3267
aasS'0007791'
p3268
(lp3269
(lp3270
g4
aS'0.995'
p3271
aS'899.3'
p3272
aS'395.4'
p3273
aS'968.9'
p3274
aS'467.4'
p3275
aasS'0002906'
p3276
(lp3277
(lp3278
g36
aS'0.996'
p3279
aS'718.5'
p3280
aS'158.8'
p3281
aS'753.6'
p3282
aS'192.2'
p3283
aasS'0001089'
p3284
(lp3285
(lp3286
g36
aS'0.934'
p3287
aS'833.2'
p3288
aS'140.4'
p3289
aS'878.4'
p3290
aS'188.9'
p3291
aasS'0004768'
p3292
(lp3293
(lp3294
g36
aS'0.932'
p3295
aS'351.5'
p3296
aS'301.6'
p3297
aS'370.0'
p3298
aS'319.7'
p3299
aasS'0400210'
p3300
(lp3301
(lp3302
g19
aS'0.990'
p3303
aS'745.7'
p3304
aS'227.4'
p3305
aS'768.3'
p3306
aS'251.0'
p3307
aasS'0004163'
p3308
(lp3309
(lp3310
g36
aS'0.954'
p3311
aS'426.7'
p3312
aS'270.5'
p3313
aS'459.4'
p3314
aS'305.4'
p3315
aasS'0003690'
p3316
(lp3317
(lp3318
g4
aS'0.993'
p3319
aS'376.4'
p3320
aS'243.2'
p3321
aS'393.9'
p3322
aS'260.3'
p3323
aasS'0000932'
p3324
(lp3325
(lp3326
g4
aS'0.997'
p3327
aS'815.3'
p3328
aS'86.1'
p3329
aS'871.8'
p3330
aS'143.6'
p3331
aasS'0006378'
p3332
(lp3333
(lp3334
g4
aS'0.983'
p3335
aS'794.4'
p3336
aS'376.9'
p3337
aS'858.8'
p3338
aS'441.4'
p3339
aasS'0001235'
p3340
(lp3341
(lp3342
g36
aS'0.998'
p3343
aS'755.6'
p3344
aS'136.1'
p3345
aS'802.2'
p3346
aS'181.8'
p3347
aasS'0006077'
p3348
(lp3349
(lp3350
g36
aS'0.996'
p3351
aS'888.2'
p3352
aS'358.3'
p3353
aS'957.6'
p3354
aS'438.2'
p3355
aasS'0405365'
p3356
(lp3357
(lp3358
g19
aS'0.988'
p3359
aS'513.3'
p3360
aS'52.4'
p3361
aS'601.5'
p3362
aS'145.2'
p3363
aasS'0007106'
p3364
(lp3365
(lp3366
g4
aS'0.981'
p3367
aS'1022.3'
p3368
aS'411.7'
p3369
aS'1080.0'
p3370
aS'475.6'
p3371
aasS'0007666'
p3372
(lp3373
(lp3374
g4
aS'0.994'
p3375
aS'1049.1'
p3376
aS'420.6'
p3377
aS'1099.9'
p3378
aS'477.2'
p3379
aasS'0002831'
p3380
(lp3381
(lp3382
g19
aS'0.994'
p3383
aS'589.7'
p3384
aS'159.4'
p3385
aS'617.1'
p3386
aS'192.3'
p3387
aasS'0002832'
p3388
(lp3389
(lp3390
g19
aS'0.994'
p3391
aS'612.9'
p3392
aS'154.7'
p3393
aS'637.5'
p3394
aS'182.7'
p3395
aasS'0007665'
p3396
(lp3397
(lp3398
g4
aS'0.988'
p3399
aS'1029.0'
p3400
aS'427.1'
p3401
aS'1072.2'
p3402
aS'472.1'
p3403
aasS'0000683'
p3404
(lp3405
(lp3406
g4
aS'0.991'
p3407
aS'813.9'
p3408
aS'172.6'
p3409
aS'845.1'
p3410
aS'203.5'
p3411
aasS'0002530'
p3412
(lp3413
(lp3414
g4
aS'0.991'
p3415
aS'771.6'
p3416
aS'152.2'
p3417
aS'822.1'
p3418
aS'198.7'
p3419
aasS'0007726'
p3420
(lp3421
(lp3422
g4
aS'0.996'
p3423
aS'891.7'
p3424
aS'418.3'
p3425
aS'958.6'
p3426
aS'486.3'
p3427
aasS'0003333'
p3428
(lp3429
(lp3430
g4
aS'0.944'
p3431
aS'629.9'
p3432
aS'191.8'
p3433
aS'650.2'
p3434
aS'211.1'
p3435
aasS'0406547'
p3436
(lp3437
(lp3438
g19
aS'0.992'
p3439
aS'627.0'
p3440
aS'439.2'
p3441
aS'657.9'
p3442
aS'480.8'
p3443
aasS'0001414'
p3444
(lp3445
(lp3446
g4
aS'0.979'
p3447
aS'533.7'
p3448
aS'172.7'
p3449
aS'566.4'
p3450
aS'205.7'
p3451
aasS'0008443'
p3452
(lp3453
(lp3454
g36
aS'0.988'
p3455
aS'1109.4'
p3456
aS'404.8'
p3457
aS'1154.4'
p3458
aS'450.9'
p3459
aasS'0005665'
p3460
(lp3461
(lp3462
g4
aS'0.995'
p3463
aS'168.9'
p3464
aS'191.9'
p3465
aS'213.9'
p3466
aS'236.7'
p3467
aasS'0008328'
p3468
(lp3469
(lp3470
g19
aS'0.981'
p3471
aS'988.7'
p3472
aS'452.5'
p3473
aS'1023.8'
p3474
aS'493.8'
p3475
aasS'0001906'
p3476
(lp3477
(lp3478
g19
aS'0.987'
p3479
aS'622.4'
p3480
aS'162.5'
p3481
aS'645.8'
p3482
aS'190.7'
p3483
aasS'0404083'
p3484
(lp3485
(lp3486
g19
aS'0.976'
p3487
aS'468.0'
p3488
aS'276.7'
p3489
aS'486.9'
p3490
aS'294.1'
p3491
aasS'0404169'
p3492
(lp3493
(lp3494
g19
aS'0.998'
p3495
aS'498.0'
p3496
aS'238.1'
p3497
aS'538.3'
p3498
aS'278.6'
p3499
aasS'0003232'
p3500
(lp3501
(lp3502
g36
aS'0.994'
p3503
aS'643.9'
p3504
aS'153.7'
p3505
aS'684.8'
p3506
aS'196.6'
p3507
aasS'0003237'
p3508
(lp3509
(lp3510
g36
aS'0.999'
p3511
aS'879.9'
p3512
aS'95.0'
p3513
aS'943.4'
p3514
aS'162.4'
p3515
aasS'0002341'
p3516
(lp3517
(lp3518
g4
aS'0.997'
p3519
aS'889.1'
p3520
aS'61.7'
p3521
aS'965.8'
p3522
aS'139.1'
p3523
aasS'0007613'
p3524
(lp3525
(lp3526
g19
aS'0.981'
p3527
aS'822.6'
p3528
aS'404.9'
p3529
aS'857.8'
p3530
aS'453.6'
p3531
aasS'0002220'
p3532
(lp3533
(lp3534
g4
aS'0.999'
p3535
aS'861.0'
p3536
aS'15.0'
p3537
aS'965.0'
p3538
aS'124.4'
p3539
aasS'0005095'
p3540
(lp3541
(lp3542
g19
aS'0.982'
p3543
aS'54.9'
p3544
aS'146.1'
p3545
aS'87.5'
p3546
aS'186.7'
p3547
aasS'0002018'
p3548
(lp3549
(lp3550
g19
aS'0.996'
p3551
aS'825.2'
p3552
aS'121.9'
p3553
aS'871.3'
p3554
aS'178.5'
p3555
aasS'0001692'
p3556
(lp3557
(lp3558
g19
aS'0.994'
p3559
aS'871.5'
p3560
aS'43.3'
p3561
aS'917.7'
p3562
aS'100.4'
p3563
aasS'0005651'
p3564
(lp3565
(lp3566
g4
aS'0.987'
p3567
aS'445.0'
p3568
aS'232.0'
p3569
aS'465.0'
p3570
aS'251.6'
p3571
aasS'0001699'
p3572
(lp3573
(lp3574
g19
aS'0.985'
p3575
aS'872.7'
p3576
aS'125.1'
p3577
aS'901.5'
p3578
aS'159.1'
p3579
aasS'0001751'
p3580
(lp3581
(lp3582
g4
aS'0.996'
p3583
aS'370.7'
p3584
aS'172.9'
p3585
aS'400.2'
p3586
aS'200.3'
p3587
aasS'0008149'
p3588
(lp3589
(lp3590
g4
aS'0.992'
p3591
aS'975.6'
p3592
aS'414.8'
p3593
aS'1038.6'
p3594
aS'477.8'
p3595
aasS'0006522'
p3596
(lp3597
(lp3598
g36
aS'0.974'
p3599
aS'732.3'
p3600
aS'463.9'
p3601
aS'767.3'
p3602
aS'501.7'
p3603
aasS'0006521'
p3604
(lp3605
(lp3606
g36
aS'0.978'
p3607
aS'695.0'
p3608
aS'472.4'
p3609
aS'738.9'
p3610
aS'518.5'
p3611
aasS'0005322'
p3612
(lp3613
(lp3614
g36
aS'0.997'
p3615
aS'448.5'
p3616
aS'211.2'
p3617
aS'495.3'
p3618
aS'252.2'
p3619
aasS'0004236'
p3620
(lp3621
(lp3622
g19
aS'0.994'
p3623
aS'450.0'
p3624
aS'301.6'
p3625
aS'476.7'
p3626
aS'332.9'
p3627
aasS'0004628'
p3628
(lp3629
(lp3630
g4
aS'0.995'
p3631
aS'375.3'
p3632
aS'298.8'
p3633
aS'403.9'
p3634
aS'326.0'
p3635
aasS'0005480'
p3636
(lp3637
(lp3638
g36
aS'0.994'
p3639
aS'399.7'
p3640
aS'214.0'
p3641
aS'418.1'
p3642
aS'232.1'
p3643
aasS'0002479'
p3644
(lp3645
(lp3646
g4
aS'0.997'
p3647
aS'737.2'
p3648
aS'94.2'
p3649
aS'804.0'
p3650
aS'158.0'
p3651
aasS'0001620'
p3652
(lp3653
(lp3654
g19
aS'0.993'
p3655
aS'493.4'
p3656
aS'127.5'
p3657
aS'528.1'
p3658
aS'167.5'
p3659
aasS'0002127'
p3660
(lp3661
(lp3662
g19
aS'0.930'
p3663
aS'917.6'
p3664
aS'42.0'
p3665
aS'978.5'
p3666
aS'122.5'
p3667
aasS'0001994'
p3668
(lp3669
(lp3670
g4
aS'0.988'
p3671
aS'318.8'
p3672
aS'154.9'
p3673
aS'355.7'
p3674
aS'190.5'
p3675
aasS'0005715'
p3676
(lp3677
(lp3678
g36
aS'0.996'
p3679
aS'517.9'
p3680
aS'211.9'
p3681
aS'545.2'
p3682
aS'237.7'
p3683
aasS'0002083'
p3684
(lp3685
(lp3686
g4
aS'0.994'
p3687
aS'756.8'
p3688
aS'108.9'
p3689
aS'803.2'
p3690
aS'161.1'
p3691
aasS'0006132'
p3692
(lp3693
(lp3694
g36
aS'0.982'
p3695
aS'805.4'
p3696
aS'397.2'
p3697
aS'833.6'
p3698
aS'430.4'
p3699
aasS'0701014'
p3700
(lp3701
(lp3702
g36
aS'0.947'
p3703
aS'420.6'
p3704
aS'169.6'
p3705
aS'439.5'
p3706
aS'190.5'
p3707
aasS'0006314'
p3708
(lp3709
(lp3710
g4
aS'0.994'
p3711
aS'690.3'
p3712
aS'397.7'
p3713
aS'768.4'
p3714
aS'473.1'
p3715
aasS'0006252'
p3716
(lp3717
(lp3718
g19
aS'0.598'
p3719
aS'856.2'
p3720
aS'425.6'
p3721
aS'892.0'
p3722
aS'463.7'
p3723
aasS'0000570'
p3724
(lp3725
(lp3726
g4
aS'0.990'
p3727
aS'738.5'
p3728
aS'170.5'
p3729
aS'771.3'
p3730
aS'206.5'
p3731
aasS'0008037'
p3732
(lp3733
(lp3734
g19
aS'0.992'
p3735
aS'759.6'
p3736
aS'454.9'
p3737
aS'796.3'
p3738
aS'502.5'
p3739
aasS'0401255'
p3740
(lp3741
(lp3742
g19
aS'0.992'
p3743
aS'382.2'
p3744
aS'182.1'
p3745
aS'405.6'
p3746
aS'207.4'
p3747
aasS'0002717'
p3748
(lp3749
(lp3750
g4
aS'1.000'
p3751
aS'715.2'
p3752
aS'39.4'
p3753
aS'795.7'
p3754
aS'120.2'
p3755
aasS'0706143'
p3756
(lp3757
(lp3758
g36
aS'0.922'
p3759
aS'1121.3'
p3760
aS'336.2'
p3761
aS'1197.1'
p3762
aS'418.6'
p3763
aasS'0000971'
p3764
(lp3765
(lp3766
g19
aS'0.987'
p3767
aS'786.0'
p3768
aS'161.8'
p3769
aS'813.3'
p3770
aS'193.4'
p3771
aasS'0005959'
p3772
(lp3773
(lp3774
g4
aS'0.997'
p3775
aS'1100.7'
p3776
aS'341.8'
p3777
aS'1204.7'
p3778
aS'447.1'
p3779
aasS'0406686'
p3780
(lp3781
(lp3782
g19
aS'0.995'
p3783
aS'818.6'
p3784
aS'424.2'
p3785
aS'871.3'
p3786
aS'478.1'
p3787
aasS'0003300'
p3788
(lp3789
(lp3790
g36
aS'0.998'
p3791
aS'727.6'
p3792
aS'148.2'
p3793
aS'768.4'
p3794
aS'188.6'
p3795
aasS'0006007'
p3796
(lp3797
(lp3798
g4
aS'0.992'
p3799
aS'847.3'
p3800
aS'343.8'
p3801
aS'911.0'
p3802
aS'406.5'
p3803
aasS'0005065'
p3804
(lp3805
(lp3806
g4
aS'0.996'
p3807
aS'606.2'
p3808
aS'176.5'
p3809
aS'648.1'
p3810
aS'222.9'
p3811
aasS'0001057'
p3812
(lp3813
(lp3814
g4
aS'0.999'
p3815
aS'754.2'
p3816
aS'79.9'
p3817
aS'835.6'
p3818
aS'160.7'
p3819
aasS'0006418'
p3820
(lp3821
(lp3822
g4
aS'0.985'
p3823
aS'758.2'
p3824
aS'404.6'
p3825
aS'809.8'
p3826
aS'457.5'
p3827
aasS'0004533'
p3828
(lp3829
(lp3830
g36
aS'0.990'
p3831
aS'404.0'
p3832
aS'294.2'
p3833
aS'426.1'
p3834
aS'317.7'
p3835
aasS'0001194'
p3836
(lp3837
(lp3838
g36
aS'0.908'
p3839
aS'574.5'
p3840
aS'175.8'
p3841
aS'601.9'
p3842
aS'203.2'
p3843
aasS'0006877'
p3844
(lp3845
(lp3846
g4
aS'0.996'
p3847
aS'702.8'
p3848
aS'410.2'
p3849
aS'793.0'
p3850
aS'504.1'
p3851
aasS'0003086'
p3852
(lp3853
(lp3854
g36
aS'0.754'
p3855
aS'378.0'
p3856
aS'213.5'
p3857
aS'394.4'
p3858
aS'230.0'
p3859
aasS'0704041'
p3860
(lp3861
(lp3862
g36
aS'0.983'
p3863
aS'401.3'
p3864
aS'270.6'
p3865
aS'428.2'
p3866
aS'298.6'
p3867
aasS'0701283'
p3868
(lp3869
(lp3870
g36
aS'0.924'
p3871
aS'649.4'
p3872
aS'145.2'
p3873
aS'675.3'
p3874
aS'172.3'
p3875
aasS'0003402'
p3876
(lp3877
(lp3878
g19
aS'0.981'
p3879
aS'455.0'
p3880
aS'43.4'
p3881
aS'483.9'
p3882
aS'73.2'
p3883
aasS'0002978'
p3884
(lp3885
(lp3886
g4
aS'0.995'
p3887
aS'710.5'
p3888
aS'153.3'
p3889
aS'763.2'
p3890
aS'207.3'
p3891
aasS'0007022'
p3892
(lp3893
(lp3894
g4
aS'0.988'
p3895
aS'740.4'
p3896
aS'429.2'
p3897
aS'782.6'
p3898
aS'471.5'
p3899
aasS'0003407'
p3900
(lp3901
(lp3902
g19
aS'0.997'
p3903
aS'513.5'
p3904
aS'27.2'
p3905
aS'551.4'
p3906
aS'73.7'
p3907
aasS'0704282'
p3908
(lp3909
(lp3910
g36
aS'0.991'
p3911
aS'565.2'
p3912
aS'225.1'
p3913
aS'601.3'
p3914
aS'260.7'
p3915
aasS'0002971'
p3916
(lp3917
(lp3918
g4
aS'0.999'
p3919
aS'787.5'
p3920
aS'86.9'
p3921
aS'854.8'
p3922
aS'151.8'
p3923
aasS'0704327'
p3924
(lp3925
(lp3926
g36
aS'0.996'
p3927
aS'583.1'
p3928
aS'277.9'
p3929
aS'610.3'
p3930
aS'304.0'
p3931
aasS'0003390'
p3932
(lp3933
(lp3934
g36
aS'0.998'
p3935
aS'592.8'
p3936
aS'10.9'
p3937
aS'627.3'
p3938
aS'42.6'
p3939
aasS'0000809'
p3940
(lp3941
(lp3942
g4
aS'0.998'
p3943
aS'343.0'
p3944
aS'150.5'
p3945
aS'399.3'
p3946
aS'204.8'
p3947
aasS'0000374'
p3948
(lp3949
(lp3950
g4
aS'0.995'
p3951
aS'683.4'
p3952
aS'158.7'
p3953
aS'737.8'
p3954
aS'211.8'
p3955
aasS'0004756'
p3956
(lp3957
(lp3958
g4
aS'0.996'
p3959
aS'367.7'
p3960
aS'289.0'
p3961
aS'401.6'
p3962
aS'319.6'
p3963
aasS'0000099'
p3964
(lp3965
(lp3966
g4
aS'0.988'
p3967
aS'126.6'
p3968
aS'142.6'
p3969
aS'154.7'
p3970
aS'171.0'
p3971
aasS'0002379'
p3972
(lp3973
(lp3974
g4
aS'0.995'
p3975
aS'578.7'
p3976
aS'185.6'
p3977
aS'604.4'
p3978
aS'209.9'
p3979
aasS'0002373'
p3980
(lp3981
(lp3982
g4
aS'0.981'
p3983
aS'412.7'
p3984
aS'170.2'
p3985
aS'438.8'
p3986
aS'196.3'
p3987
aasS'0006359'
p3988
(lp3989
(lp3990
g4
aS'0.996'
p3991
aS'1156.7'
p3992
aS'316.1'
p3993
aS'1230.6'
p3994
aS'397.5'
p3995
aasS'0005113'
p3996
(lp3997
(lp3998
g19
aS'0.996'
p3999
aS'647.5'
p4000
aS'139.0'
p4001
aS'687.3'
p4002
aS'182.7'
p4003
aasS'0006374'
p4004
(lp4005
(lp4006
g4
aS'0.990'
p4007
aS'710.1'
p4008
aS'418.9'
p4009
aS'746.0'
p4010
aS'456.7'
p4011
aasS'0005054'
p4012
(lp4013
(lp4014
g36
aS'0.994'
p4015
aS'507.6'
p4016
aS'187.3'
p4017
aS'542.7'
p4018
aS'218.5'
p4019
aasS'0005502'
p4020
(lp4021
(lp4022
g4
aS'0.992'
p4023
aS'487.0'
p4024
aS'178.9'
p4025
aS'514.5'
p4026
aS'206.0'
p4027
aasS'0000651'
p4028
(lp4029
(lp4030
g19
aS'0.919'
p4031
aS'593.2'
p4032
aS'161.4'
p4033
aS'609.8'
p4034
aS'179.9'
p4035
aasS'0007091'
p4036
(lp4037
(lp4038
g36
aS'0.767'
p4039
aS'943.9'
p4040
aS'438.7'
p4041
aS'979.9'
p4042
aS'479.8'
p4043
aasS'0003471'
p4044
(lp4045
(lp4046
g19
aS'0.995'
p4047
aS'664.0'
p4048
aS'9.5'
p4049
aS'699.6'
p4050
aS'55.9'
p4051
aas.