(dp0
S'Wayne_Knight_7_120.43_150.29_388.14_418.00.jpg'
p1
I35
sS'Eion_Bailey_1_203.17_129.65_367.58_294.07.jpg'
p2
I39
sS'Lori_Singer_9_122.86_43.22_177.67_98.02.jpg'
p3
I35
sS'Craig_Ferguson_7_226.61_60.67_362.04_196.10.jpg'
p4
I39
sS'Molly_Ringwald_1_98.36_73.85_208.30_183.79.jpg'
p5
I30
sS'Sam_Trammell_0_33.00_161.00_320.00_448.00.jpg'
p6
I32
sS'Meg_Ryan_3_49.34_86.10_159.29_196.04.jpg'
p7
I31
sS'Isla_Fisher_3_139.00_75.00_234.67_170.67.jpg'
p8
I39
sS'Katie_Cassidy_0_138.19_121.04_291.52_274.37.jpg'
p9
I32
sS'Kristen_Wiig_4_65.99_52.86_183.85_170.72.jpg'
p10
I38
sS'Marilyn_Burns_0_267.00_43.00_362.67_138.67.jpg'
p11
I39
sS'Nick_Thune_2_249.85_92.26_367.70_210.12.jpg'
p12
I34
sS'Woody_Harrelson_8_0.33_45.59_135.76_181.02.jpg'
p13
I36
sS'Valeria_Golino_7_86.10_86.10_196.04_196.04.jpg'
p14
I38
sS'Kodi_Smit-McPhee_9_148.03_111.28_312.45_275.69.jpg'
p15
I34
sS'Chiara_Mastroianni_4_89.90_70.00_179.14_159.24.jpg'
p16
I34
sS'Iwan_Rheon_8_111.76_56.05_278.58_222.86.jpg'
p17
I33
sS'Ron_Eldard_6_105.39_131.66_341.44_367.70.jpg'
p18
I37
sS'Chris_Bauer_9_112.43_140.29_362.15_390.01.jpg'
p19
I37
sS'Nina_Hoss_7_122.86_73.85_232.80_183.79.jpg'
p20
I38
sS'Penny_Marshall_7_113.00_145.00_256.00_288.00.jpg'
p21
I37
sS'Helen_Mirren_6_70.71_70.71_197.05_197.05.jpg'
p22
I37
sS'Richard_Grieco_2_129.67_113.51_274.85_258.68.jpg'
p23
I33
sS'Alexandria_Deberry_5_210.00_210.00_477.71_477.71.jpg'
p24
I33
sS'Mary_Stuart_Masterson_1_93.19_111.76_260.00_278.58.jpg'
p25
I34
sS'Rosie_Huntington-Whiteley_2_104.97_156.95_337.90_389.88.jpg'
p26
I34
sS'Ajay_Devgn_9_69.65_52.32_225.26_207.94.jpg'
p27
I36
sS'Rick_Malambri_5_155.34_86.74_308.67_240.08.jpg'
p28
I38
sS'Jillian_Harris_6_299.00_80.33_322.67_104.00.jpg'
p29
I37
sS'Gigi_Edgley_8_128.33_107.00_320.00_298.67.jpg'
p30
I34
sS'Pam_Dawber_9_114.66_114.66_320.10_320.10.jpg'
p31
I32
sS'Jorge_Garcia_4_97.00_97.00_384.00_384.00.jpg'
p32
I38
sS'Kayla_Collins_4_296.47_138.89_472.76_315.17.jpg'
p33
I36
sS'Lesley-Anne_Down_7_170.76_170.76_388.02_388.02.jpg'
p34
I38
sS'Lochlyn_Munro_2_91.51_136.76_294.16_339.41.jpg'
p35
I37
sS'Shiloh_Fernandez_8_162.19_42.56_225.20_105.56.jpg'
p36
I29
s.